Archive member included to satisfy reference by file (symbol)

/usr/lib/gcc/arm-none-eabi/7.3.1/thumb/v6-m/libgcc.a(_dvmd_tls.o)
                              CMakeFiles/hello_usb.dir/opt/pico-sdk/src/rp2_common/pico_divider/divider.S.obj (__aeabi_idiv0)
/usr/lib/gcc/arm-none-eabi/7.3.1/../../../arm-none-eabi/lib/thumb/v6-m/libg.a(lib_a-atexit.o)
                              /usr/lib/gcc/arm-none-eabi/7.3.1/../../../arm-none-eabi/lib/thumb/v6-m/crt0.o (atexit)
/usr/lib/gcc/arm-none-eabi/7.3.1/../../../arm-none-eabi/lib/thumb/v6-m/libg.a(lib_a-calloc.o)
                              CMakeFiles/hello_usb.dir/opt/pico-sdk/src/rp2_common/pico_malloc/pico_malloc.c.obj (calloc)
/usr/lib/gcc/arm-none-eabi/7.3.1/../../../arm-none-eabi/lib/thumb/v6-m/libg.a(lib_a-callocr.o)
                              /usr/lib/gcc/arm-none-eabi/7.3.1/../../../arm-none-eabi/lib/thumb/v6-m/libg.a(lib_a-calloc.o) (_calloc_r)
/usr/lib/gcc/arm-none-eabi/7.3.1/../../../arm-none-eabi/lib/thumb/v6-m/libg.a(lib_a-ctype_.o)
                              CMakeFiles/hello_usb.dir/opt/pico-sdk/lib/tinyusb/src/tusb.c.obj (_ctype_)
/usr/lib/gcc/arm-none-eabi/7.3.1/../../../arm-none-eabi/lib/thumb/v6-m/libg.a(lib_a-fini.o)
                              /usr/lib/gcc/arm-none-eabi/7.3.1/../../../arm-none-eabi/lib/thumb/v6-m/crt0.o (__libc_fini_array)
/usr/lib/gcc/arm-none-eabi/7.3.1/../../../arm-none-eabi/lib/thumb/v6-m/libg.a(lib_a-impure.o)
                              /usr/lib/gcc/arm-none-eabi/7.3.1/../../../arm-none-eabi/lib/thumb/v6-m/libg.a(lib_a-calloc.o) (_impure_ptr)
/usr/lib/gcc/arm-none-eabi/7.3.1/../../../arm-none-eabi/lib/thumb/v6-m/libg.a(lib_a-init.o)
                              /usr/lib/gcc/arm-none-eabi/7.3.1/../../../arm-none-eabi/lib/thumb/v6-m/crt0.o (__libc_init_array)
/usr/lib/gcc/arm-none-eabi/7.3.1/../../../arm-none-eabi/lib/thumb/v6-m/libg.a(lib_a-malloc.o)
                              CMakeFiles/hello_usb.dir/opt/pico-sdk/src/rp2_common/pico_malloc/pico_malloc.c.obj (malloc)
/usr/lib/gcc/arm-none-eabi/7.3.1/../../../arm-none-eabi/lib/thumb/v6-m/libg.a(lib_a-mallocr.o)
                              /usr/lib/gcc/arm-none-eabi/7.3.1/../../../arm-none-eabi/lib/thumb/v6-m/libg.a(lib_a-callocr.o) (_malloc_r)
/usr/lib/gcc/arm-none-eabi/7.3.1/../../../arm-none-eabi/lib/thumb/v6-m/libg.a(lib_a-mlock.o)
                              /usr/lib/gcc/arm-none-eabi/7.3.1/../../../arm-none-eabi/lib/thumb/v6-m/libg.a(lib_a-mallocr.o) (__malloc_lock)
/usr/lib/gcc/arm-none-eabi/7.3.1/../../../arm-none-eabi/lib/thumb/v6-m/libg.a(lib_a-sbrkr.o)
                              /usr/lib/gcc/arm-none-eabi/7.3.1/../../../arm-none-eabi/lib/thumb/v6-m/libg.a(lib_a-mallocr.o) (_sbrk_r)
/usr/lib/gcc/arm-none-eabi/7.3.1/../../../arm-none-eabi/lib/thumb/v6-m/libg.a(lib_a-strlen-stub.o)
                              CMakeFiles/hello_usb.dir/opt/pico-sdk/src/rp2_common/pico_stdio/stdio.c.obj (strlen)
/usr/lib/gcc/arm-none-eabi/7.3.1/../../../arm-none-eabi/lib/thumb/v6-m/libg.a(lib_a-__atexit.o)
                              /usr/lib/gcc/arm-none-eabi/7.3.1/../../../arm-none-eabi/lib/thumb/v6-m/libg.a(lib_a-atexit.o) (__register_exitproc)
/usr/lib/gcc/arm-none-eabi/7.3.1/../../../arm-none-eabi/lib/thumb/v6-m/libg.a(lib_a-freer.o)
                              /usr/lib/gcc/arm-none-eabi/7.3.1/../../../arm-none-eabi/lib/thumb/v6-m/libg.a(lib_a-malloc.o) (_free_r)
/usr/lib/gcc/arm-none-eabi/7.3.1/../../../arm-none-eabi/lib/thumb/v6-m/libg.a(lib_a-reent.o)
                              /usr/lib/gcc/arm-none-eabi/7.3.1/../../../arm-none-eabi/lib/thumb/v6-m/libg.a(lib_a-sbrkr.o) (errno)

Allocating common symbols
Common symbol       size              file

sf_table            0x100             CMakeFiles/hello_usb.dir/opt/pico-sdk/src/rp2_common/pico_float/float_init_rom.c.obj
errno               0x4               /usr/lib/gcc/arm-none-eabi/7.3.1/../../../arm-none-eabi/lib/thumb/v6-m/libg.a(lib_a-reent.o)
_usbd_qdef_buf      0xc0              CMakeFiles/hello_usb.dir/opt/pico-sdk/lib/tinyusb/src/device/usbd.c.obj
sf_clz_func         0x4               CMakeFiles/hello_usb.dir/opt/pico-sdk/src/rp2_common/pico_float/float_init_rom.c.obj
sd_table            0x100             CMakeFiles/hello_usb.dir/opt/pico-sdk/src/rp2_common/pico_double/double_init_rom.c.obj
uart_char_to_line_feed
                    0x4               CMakeFiles/hello_usb.dir/opt/pico-sdk/src/rp2_common/hardware_uart/uart.c.obj

Discarded input sections

 .text          0x00000000        0x0 /usr/lib/gcc/arm-none-eabi/7.3.1/thumb/v6-m/crti.o
 .data          0x00000000        0x0 /usr/lib/gcc/arm-none-eabi/7.3.1/thumb/v6-m/crti.o
 .bss           0x00000000        0x0 /usr/lib/gcc/arm-none-eabi/7.3.1/thumb/v6-m/crti.o
 .data          0x00000000        0x4 /usr/lib/gcc/arm-none-eabi/7.3.1/thumb/v6-m/crtbegin.o
 .fini_array    0x00000000        0x4 /usr/lib/gcc/arm-none-eabi/7.3.1/thumb/v6-m/crtbegin.o
 .text          0x00000000       0x6c /usr/lib/gcc/arm-none-eabi/7.3.1/../../../arm-none-eabi/lib/thumb/v6-m/crt0.o
 .data          0x00000000        0x0 /usr/lib/gcc/arm-none-eabi/7.3.1/../../../arm-none-eabi/lib/thumb/v6-m/crt0.o
 .bss           0x00000000        0x0 /usr/lib/gcc/arm-none-eabi/7.3.1/../../../arm-none-eabi/lib/thumb/v6-m/crt0.o
 .ARM.extab     0x00000000        0x0 /usr/lib/gcc/arm-none-eabi/7.3.1/../../../arm-none-eabi/lib/thumb/v6-m/crt0.o
 .ARM.exidx     0x00000000        0x8 /usr/lib/gcc/arm-none-eabi/7.3.1/../../../arm-none-eabi/lib/thumb/v6-m/crt0.o
 .debug_line    0x00000000       0x86 /usr/lib/gcc/arm-none-eabi/7.3.1/../../../arm-none-eabi/lib/thumb/v6-m/crt0.o
 .debug_info    0x00000000       0x26 /usr/lib/gcc/arm-none-eabi/7.3.1/../../../arm-none-eabi/lib/thumb/v6-m/crt0.o
 .debug_abbrev  0x00000000       0x14 /usr/lib/gcc/arm-none-eabi/7.3.1/../../../arm-none-eabi/lib/thumb/v6-m/crt0.o
 .debug_aranges
                0x00000000       0x20 /usr/lib/gcc/arm-none-eabi/7.3.1/../../../arm-none-eabi/lib/thumb/v6-m/crt0.o
 .debug_str     0x00000000       0x82 /usr/lib/gcc/arm-none-eabi/7.3.1/../../../arm-none-eabi/lib/thumb/v6-m/crt0.o
 .ARM.attributes
                0x00000000       0x1b /usr/lib/gcc/arm-none-eabi/7.3.1/../../../arm-none-eabi/lib/thumb/v6-m/crt0.o
 .text          0x00000000        0x0 CMakeFiles/hello_usb.dir/hello_usb.c.obj
 .data          0x00000000        0x0 CMakeFiles/hello_usb.dir/hello_usb.c.obj
 .bss           0x00000000        0x0 CMakeFiles/hello_usb.dir/hello_usb.c.obj
 .text          0x00000000        0x0 CMakeFiles/hello_usb.dir/opt/pico-sdk/src/rp2_common/pico_stdlib/stdlib.c.obj
 .data          0x00000000        0x0 CMakeFiles/hello_usb.dir/opt/pico-sdk/src/rp2_common/pico_stdlib/stdlib.c.obj
 .bss           0x00000000        0x0 CMakeFiles/hello_usb.dir/opt/pico-sdk/src/rp2_common/pico_stdlib/stdlib.c.obj
 .text.set_sys_clock_48mhz
                0x00000000       0x40 CMakeFiles/hello_usb.dir/opt/pico-sdk/src/rp2_common/pico_stdlib/stdlib.c.obj
 .text.set_sys_clock_pll
                0x00000000       0x78 CMakeFiles/hello_usb.dir/opt/pico-sdk/src/rp2_common/pico_stdlib/stdlib.c.obj
 .text.check_sys_clock_khz
                0x00000000       0xb4 CMakeFiles/hello_usb.dir/opt/pico-sdk/src/rp2_common/pico_stdlib/stdlib.c.obj
 .text.setup_default_uart
                0x00000000       0x2c CMakeFiles/hello_usb.dir/opt/pico-sdk/src/rp2_common/pico_stdlib/stdlib.c.obj
 .binary_info.__bi_ptr102
                0x00000000        0x4 CMakeFiles/hello_usb.dir/opt/pico-sdk/src/rp2_common/pico_stdlib/stdlib.c.obj
 .rodata.__bi_102.5019
                0x00000000        0x8 CMakeFiles/hello_usb.dir/opt/pico-sdk/src/rp2_common/pico_stdlib/stdlib.c.obj
 .debug_info    0x00000000      0x718 CMakeFiles/hello_usb.dir/opt/pico-sdk/src/rp2_common/pico_stdlib/stdlib.c.obj
 .debug_abbrev  0x00000000      0x1cf CMakeFiles/hello_usb.dir/opt/pico-sdk/src/rp2_common/pico_stdlib/stdlib.c.obj
 .debug_loc     0x00000000      0x27a CMakeFiles/hello_usb.dir/opt/pico-sdk/src/rp2_common/pico_stdlib/stdlib.c.obj
 .debug_aranges
                0x00000000       0x38 CMakeFiles/hello_usb.dir/opt/pico-sdk/src/rp2_common/pico_stdlib/stdlib.c.obj
 .debug_ranges  0x00000000       0x98 CMakeFiles/hello_usb.dir/opt/pico-sdk/src/rp2_common/pico_stdlib/stdlib.c.obj
 .debug_line    0x00000000      0x49f CMakeFiles/hello_usb.dir/opt/pico-sdk/src/rp2_common/pico_stdlib/stdlib.c.obj
 .debug_str     0x00000000      0x580 CMakeFiles/hello_usb.dir/opt/pico-sdk/src/rp2_common/pico_stdlib/stdlib.c.obj
 .comment       0x00000000       0x58 CMakeFiles/hello_usb.dir/opt/pico-sdk/src/rp2_common/pico_stdlib/stdlib.c.obj
 .debug_frame   0x00000000       0x90 CMakeFiles/hello_usb.dir/opt/pico-sdk/src/rp2_common/pico_stdlib/stdlib.c.obj
 .ARM.attributes
                0x00000000       0x32 CMakeFiles/hello_usb.dir/opt/pico-sdk/src/rp2_common/pico_stdlib/stdlib.c.obj
 .text          0x00000000        0x0 CMakeFiles/hello_usb.dir/opt/pico-sdk/src/rp2_common/hardware_gpio/gpio.c.obj
 .data          0x00000000        0x0 CMakeFiles/hello_usb.dir/opt/pico-sdk/src/rp2_common/hardware_gpio/gpio.c.obj
 .bss           0x00000000        0x0 CMakeFiles/hello_usb.dir/opt/pico-sdk/src/rp2_common/hardware_gpio/gpio.c.obj
 .text.gpio_get_pad
                0x00000000       0x28 CMakeFiles/hello_usb.dir/opt/pico-sdk/src/rp2_common/hardware_gpio/gpio.c.obj
 .text.gpio_set_function
                0x00000000       0x30 CMakeFiles/hello_usb.dir/opt/pico-sdk/src/rp2_common/hardware_gpio/gpio.c.obj
 .text.gpio_get_function
                0x00000000       0x14 CMakeFiles/hello_usb.dir/opt/pico-sdk/src/rp2_common/hardware_gpio/gpio.c.obj
 .text.gpio_set_pulls
                0x00000000       0x34 CMakeFiles/hello_usb.dir/opt/pico-sdk/src/rp2_common/hardware_gpio/gpio.c.obj
 .text.gpio_set_irqover
                0x00000000       0x24 CMakeFiles/hello_usb.dir/opt/pico-sdk/src/rp2_common/hardware_gpio/gpio.c.obj
 .text.gpio_set_inover
                0x00000000       0x24 CMakeFiles/hello_usb.dir/opt/pico-sdk/src/rp2_common/hardware_gpio/gpio.c.obj
 .text.gpio_set_outover
                0x00000000       0x24 CMakeFiles/hello_usb.dir/opt/pico-sdk/src/rp2_common/hardware_gpio/gpio.c.obj
 .text.gpio_set_oeover
                0x00000000       0x24 CMakeFiles/hello_usb.dir/opt/pico-sdk/src/rp2_common/hardware_gpio/gpio.c.obj
 .text.gpio_set_input_hysteresis_enabled
                0x00000000       0x30 CMakeFiles/hello_usb.dir/opt/pico-sdk/src/rp2_common/hardware_gpio/gpio.c.obj
 .text.gpio_is_input_hysteresis_enabled
                0x00000000       0x1c CMakeFiles/hello_usb.dir/opt/pico-sdk/src/rp2_common/hardware_gpio/gpio.c.obj
 .text.gpio_set_slew_rate
                0x00000000       0x20 CMakeFiles/hello_usb.dir/opt/pico-sdk/src/rp2_common/hardware_gpio/gpio.c.obj
 .text.gpio_get_slew_rate
                0x00000000       0x14 CMakeFiles/hello_usb.dir/opt/pico-sdk/src/rp2_common/hardware_gpio/gpio.c.obj
 .text.gpio_set_drive_strength
                0x00000000       0x20 CMakeFiles/hello_usb.dir/opt/pico-sdk/src/rp2_common/hardware_gpio/gpio.c.obj
 .text.gpio_get_drive_strength
                0x00000000       0x18 CMakeFiles/hello_usb.dir/opt/pico-sdk/src/rp2_common/hardware_gpio/gpio.c.obj
 .text.gpio_acknowledge_irq
                0x00000000       0x18 CMakeFiles/hello_usb.dir/opt/pico-sdk/src/rp2_common/hardware_gpio/gpio.c.obj
 .text._gpio_set_irq_enabled
                0x00000000       0x34 CMakeFiles/hello_usb.dir/opt/pico-sdk/src/rp2_common/hardware_gpio/gpio.c.obj
 .text.gpio_set_irq_enabled
                0x00000000       0x20 CMakeFiles/hello_usb.dir/opt/pico-sdk/src/rp2_common/hardware_gpio/gpio.c.obj
 .text.gpio_set_irq_enabled_with_callback
                0x00000000       0x30 CMakeFiles/hello_usb.dir/opt/pico-sdk/src/rp2_common/hardware_gpio/gpio.c.obj
 .text.gpio_set_dormant_irq_enabled
                0x00000000       0x10 CMakeFiles/hello_usb.dir/opt/pico-sdk/src/rp2_common/hardware_gpio/gpio.c.obj
 .text.gpio_irq_handler
                0x00000000       0x64 CMakeFiles/hello_usb.dir/opt/pico-sdk/src/rp2_common/hardware_gpio/gpio.c.obj
 .text.gpio_set_input_enabled
                0x00000000       0x30 CMakeFiles/hello_usb.dir/opt/pico-sdk/src/rp2_common/hardware_gpio/gpio.c.obj
 .text.gpio_init
                0x00000000       0x16 CMakeFiles/hello_usb.dir/opt/pico-sdk/src/rp2_common/hardware_gpio/gpio.c.obj
 .text.gpio_init_mask
                0x00000000       0x1e CMakeFiles/hello_usb.dir/opt/pico-sdk/src/rp2_common/hardware_gpio/gpio.c.obj
 .text.gpio_debug_pins_init
                0x00000000       0x18 CMakeFiles/hello_usb.dir/opt/pico-sdk/src/rp2_common/hardware_gpio/gpio.c.obj
 .bss._callbacks
                0x00000000        0x8 CMakeFiles/hello_usb.dir/opt/pico-sdk/src/rp2_common/hardware_gpio/gpio.c.obj
 .debug_info    0x00000000     0x1169 CMakeFiles/hello_usb.dir/opt/pico-sdk/src/rp2_common/hardware_gpio/gpio.c.obj
 .debug_abbrev  0x00000000      0x287 CMakeFiles/hello_usb.dir/opt/pico-sdk/src/rp2_common/hardware_gpio/gpio.c.obj
 .debug_loc     0x00000000      0xd1a CMakeFiles/hello_usb.dir/opt/pico-sdk/src/rp2_common/hardware_gpio/gpio.c.obj
 .debug_aranges
                0x00000000       0xd8 CMakeFiles/hello_usb.dir/opt/pico-sdk/src/rp2_common/hardware_gpio/gpio.c.obj
 .debug_ranges  0x00000000       0xe0 CMakeFiles/hello_usb.dir/opt/pico-sdk/src/rp2_common/hardware_gpio/gpio.c.obj
 .debug_line    0x00000000      0x549 CMakeFiles/hello_usb.dir/opt/pico-sdk/src/rp2_common/hardware_gpio/gpio.c.obj
 .debug_str     0x00000000      0x86f CMakeFiles/hello_usb.dir/opt/pico-sdk/src/rp2_common/hardware_gpio/gpio.c.obj
 .comment       0x00000000       0x58 CMakeFiles/hello_usb.dir/opt/pico-sdk/src/rp2_common/hardware_gpio/gpio.c.obj
 .debug_frame   0x00000000      0x1e8 CMakeFiles/hello_usb.dir/opt/pico-sdk/src/rp2_common/hardware_gpio/gpio.c.obj
 .ARM.attributes
                0x00000000       0x32 CMakeFiles/hello_usb.dir/opt/pico-sdk/src/rp2_common/hardware_gpio/gpio.c.obj
 .text          0x00000000        0x0 CMakeFiles/hello_usb.dir/opt/pico-sdk/src/rp2_common/hardware_claim/claim.c.obj
 .data          0x00000000        0x0 CMakeFiles/hello_usb.dir/opt/pico-sdk/src/rp2_common/hardware_claim/claim.c.obj
 .bss           0x00000000        0x0 CMakeFiles/hello_usb.dir/opt/pico-sdk/src/rp2_common/hardware_claim/claim.c.obj
 .text.hw_is_claimed
                0x00000000       0x16 CMakeFiles/hello_usb.dir/opt/pico-sdk/src/rp2_common/hardware_claim/claim.c.obj
 .text.hw_claim_clear
                0x00000000       0x40 CMakeFiles/hello_usb.dir/opt/pico-sdk/src/rp2_common/hardware_claim/claim.c.obj
 .rodata.__func__.4376
                0x00000000        0xf CMakeFiles/hello_usb.dir/opt/pico-sdk/src/rp2_common/hardware_claim/claim.c.obj
 .rodata.hw_claim_clear.str1.4
                0x00000000       0x54 CMakeFiles/hello_usb.dir/opt/pico-sdk/src/rp2_common/hardware_claim/claim.c.obj
 .text          0x00000000        0x0 CMakeFiles/hello_usb.dir/opt/pico-sdk/src/rp2_common/pico_platform/platform.c.obj
 .data          0x00000000        0x0 CMakeFiles/hello_usb.dir/opt/pico-sdk/src/rp2_common/pico_platform/platform.c.obj
 .bss           0x00000000        0x0 CMakeFiles/hello_usb.dir/opt/pico-sdk/src/rp2_common/pico_platform/platform.c.obj
 .text.rp2040_chip_version
                0x00000000       0x4c CMakeFiles/hello_usb.dir/opt/pico-sdk/src/rp2_common/pico_platform/platform.c.obj
 .rodata.__func__.4250
                0x00000000       0x14 CMakeFiles/hello_usb.dir/opt/pico-sdk/src/rp2_common/pico_platform/platform.c.obj
 .rodata.rp2040_chip_version.str1.4
                0x00000000       0x6d CMakeFiles/hello_usb.dir/opt/pico-sdk/src/rp2_common/pico_platform/platform.c.obj
 .text          0x00000000        0x0 CMakeFiles/hello_usb.dir/opt/pico-sdk/src/rp2_common/hardware_sync/sync.c.obj
 .data          0x00000000        0x0 CMakeFiles/hello_usb.dir/opt/pico-sdk/src/rp2_common/hardware_sync/sync.c.obj
 .bss           0x00000000        0x0 CMakeFiles/hello_usb.dir/opt/pico-sdk/src/rp2_common/hardware_sync/sync.c.obj
 .text.spin_lock_init
                0x00000000       0x34 CMakeFiles/hello_usb.dir/opt/pico-sdk/src/rp2_common/hardware_sync/sync.c.obj
 .text.spin_lock_claim
                0x00000000       0x18 CMakeFiles/hello_usb.dir/opt/pico-sdk/src/rp2_common/hardware_sync/sync.c.obj
 .text.spin_lock_claim_mask
                0x00000000       0x1e CMakeFiles/hello_usb.dir/opt/pico-sdk/src/rp2_common/hardware_sync/sync.c.obj
 .text.spin_lock_unclaim
                0x00000000       0x24 CMakeFiles/hello_usb.dir/opt/pico-sdk/src/rp2_common/hardware_sync/sync.c.obj
 .text.spin_lock_is_claimed
                0x00000000       0x10 CMakeFiles/hello_usb.dir/opt/pico-sdk/src/rp2_common/hardware_sync/sync.c.obj
 .rodata.__func__.4359
                0x00000000        0xf CMakeFiles/hello_usb.dir/opt/pico-sdk/src/rp2_common/hardware_sync/sync.c.obj
 .rodata.spin_lock_claim.str1.4
                0x00000000       0x1f CMakeFiles/hello_usb.dir/opt/pico-sdk/src/rp2_common/hardware_sync/sync.c.obj
 .rodata.spin_lock_init.str1.4
                0x00000000       0x4e CMakeFiles/hello_usb.dir/opt/pico-sdk/src/rp2_common/hardware_sync/sync.c.obj
 .text          0x00000000        0x0 CMakeFiles/hello_usb.dir/opt/pico-sdk/src/rp2_common/hardware_uart/uart.c.obj
 .data          0x00000000        0x0 CMakeFiles/hello_usb.dir/opt/pico-sdk/src/rp2_common/hardware_uart/uart.c.obj
 .bss           0x00000000        0x0 CMakeFiles/hello_usb.dir/opt/pico-sdk/src/rp2_common/hardware_uart/uart.c.obj
 .text.uart_deinit
                0x00000000       0x20 CMakeFiles/hello_usb.dir/opt/pico-sdk/src/rp2_common/hardware_uart/uart.c.obj
 .text.uart_set_baudrate
                0x00000000       0x5c CMakeFiles/hello_usb.dir/opt/pico-sdk/src/rp2_common/hardware_uart/uart.c.obj
 .text.uart_set_translate_crlf
                0x00000000       0x28 CMakeFiles/hello_usb.dir/opt/pico-sdk/src/rp2_common/hardware_uart/uart.c.obj
 .text.uart_init
                0x00000000       0x84 CMakeFiles/hello_usb.dir/opt/pico-sdk/src/rp2_common/hardware_uart/uart.c.obj
 .text.uart_is_readable_within_us
                0x00000000       0x20 CMakeFiles/hello_usb.dir/opt/pico-sdk/src/rp2_common/hardware_uart/uart.c.obj
 .debug_info    0x00000000      0xa10 CMakeFiles/hello_usb.dir/opt/pico-sdk/src/rp2_common/hardware_uart/uart.c.obj
 .debug_abbrev  0x00000000      0x29c CMakeFiles/hello_usb.dir/opt/pico-sdk/src/rp2_common/hardware_uart/uart.c.obj
 .debug_loc     0x00000000      0x457 CMakeFiles/hello_usb.dir/opt/pico-sdk/src/rp2_common/hardware_uart/uart.c.obj
 .debug_aranges
                0x00000000       0x40 CMakeFiles/hello_usb.dir/opt/pico-sdk/src/rp2_common/hardware_uart/uart.c.obj
 .debug_ranges  0x00000000       0x60 CMakeFiles/hello_usb.dir/opt/pico-sdk/src/rp2_common/hardware_uart/uart.c.obj
 .debug_line    0x00000000      0x3fa CMakeFiles/hello_usb.dir/opt/pico-sdk/src/rp2_common/hardware_uart/uart.c.obj
 .debug_str     0x00000000      0x530 CMakeFiles/hello_usb.dir/opt/pico-sdk/src/rp2_common/hardware_uart/uart.c.obj
 .comment       0x00000000       0x58 CMakeFiles/hello_usb.dir/opt/pico-sdk/src/rp2_common/hardware_uart/uart.c.obj
 .debug_frame   0x00000000       0x78 CMakeFiles/hello_usb.dir/opt/pico-sdk/src/rp2_common/hardware_uart/uart.c.obj
 .ARM.attributes
                0x00000000       0x32 CMakeFiles/hello_usb.dir/opt/pico-sdk/src/rp2_common/hardware_uart/uart.c.obj
 COMMON         0x00000000        0x4 CMakeFiles/hello_usb.dir/opt/pico-sdk/src/rp2_common/hardware_uart/uart.c.obj
 .text          0x00000000        0x0 CMakeFiles/hello_usb.dir/opt/pico-sdk/src/rp2_common/hardware_divider/divider.S.obj
 .data          0x00000000        0x0 CMakeFiles/hello_usb.dir/opt/pico-sdk/src/rp2_common/hardware_divider/divider.S.obj
 .bss           0x00000000        0x0 CMakeFiles/hello_usb.dir/opt/pico-sdk/src/rp2_common/hardware_divider/divider.S.obj
 .text.hw_divider_divmod_s32
                0x00000000       0x18 CMakeFiles/hello_usb.dir/opt/pico-sdk/src/rp2_common/hardware_divider/divider.S.obj
 .text.hw_divider_divmod_u32
                0x00000000       0x18 CMakeFiles/hello_usb.dir/opt/pico-sdk/src/rp2_common/hardware_divider/divider.S.obj
 .text.hw_divider_save_state
                0x00000000       0x1c CMakeFiles/hello_usb.dir/opt/pico-sdk/src/rp2_common/hardware_divider/divider.S.obj
 .text.hw_divider_restore_state
                0x00000000       0x14 CMakeFiles/hello_usb.dir/opt/pico-sdk/src/rp2_common/hardware_divider/divider.S.obj
 .debug_line    0x00000000       0xbe CMakeFiles/hello_usb.dir/opt/pico-sdk/src/rp2_common/hardware_divider/divider.S.obj
 .debug_info    0x00000000       0x22 CMakeFiles/hello_usb.dir/opt/pico-sdk/src/rp2_common/hardware_divider/divider.S.obj
 .debug_abbrev  0x00000000       0x12 CMakeFiles/hello_usb.dir/opt/pico-sdk/src/rp2_common/hardware_divider/divider.S.obj
 .debug_aranges
                0x00000000       0x38 CMakeFiles/hello_usb.dir/opt/pico-sdk/src/rp2_common/hardware_divider/divider.S.obj
 .debug_str     0x00000000       0x6f CMakeFiles/hello_usb.dir/opt/pico-sdk/src/rp2_common/hardware_divider/divider.S.obj
 .debug_ranges  0x00000000       0x30 CMakeFiles/hello_usb.dir/opt/pico-sdk/src/rp2_common/hardware_divider/divider.S.obj
 .ARM.attributes
                0x00000000       0x22 CMakeFiles/hello_usb.dir/opt/pico-sdk/src/rp2_common/hardware_divider/divider.S.obj
 .text          0x00000000        0x0 CMakeFiles/hello_usb.dir/opt/pico-sdk/src/common/pico_time/time.c.obj
 .data          0x00000000        0x0 CMakeFiles/hello_usb.dir/opt/pico-sdk/src/common/pico_time/time.c.obj
 .bss           0x00000000        0x0 CMakeFiles/hello_usb.dir/opt/pico-sdk/src/common/pico_time/time.c.obj
 .text.repeating_timer_callback
                0x00000000       0x40 CMakeFiles/hello_usb.dir/opt/pico-sdk/src/common/pico_time/time.c.obj
 .text.alarm_pool_dump_key
                0x00000000       0x70 CMakeFiles/hello_usb.dir/opt/pico-sdk/src/common/pico_time/time.c.obj
 .text.alarm_pool_create
                0x00000000       0x40 CMakeFiles/hello_usb.dir/opt/pico-sdk/src/common/pico_time/time.c.obj
 .text.alarm_pool_destroy
                0x00000000       0x78 CMakeFiles/hello_usb.dir/opt/pico-sdk/src/common/pico_time/time.c.obj
 .text.alarm_pool_hardware_alarm_num
                0x00000000        0x4 CMakeFiles/hello_usb.dir/opt/pico-sdk/src/common/pico_time/time.c.obj
 .text.alarm_pool_add_repeating_timer_us
                0x00000000       0x9c CMakeFiles/hello_usb.dir/opt/pico-sdk/src/common/pico_time/time.c.obj
 .text.cancel_repeating_timer
                0x00000000       0x1a CMakeFiles/hello_usb.dir/opt/pico-sdk/src/common/pico_time/time.c.obj
 .text.alarm_pool_dump
                0x00000000       0x34 CMakeFiles/hello_usb.dir/opt/pico-sdk/src/common/pico_time/time.c.obj
 .rodata.__func__.6259
                0x00000000       0x13 CMakeFiles/hello_usb.dir/opt/pico-sdk/src/common/pico_time/time.c.obj
 .rodata.__func__.6297
                0x00000000       0x19 CMakeFiles/hello_usb.dir/opt/pico-sdk/src/common/pico_time/time.c.obj
 .rodata.alarm_pool_destroy.str1.4
                0x00000000       0x30 CMakeFiles/hello_usb.dir/opt/pico-sdk/src/common/pico_time/time.c.obj
 .rodata.at_the_end_of_time
                0x00000000        0x8 CMakeFiles/hello_usb.dir/opt/pico-sdk/src/common/pico_time/time.c.obj
 .rodata.nil_time
                0x00000000        0x8 CMakeFiles/hello_usb.dir/opt/pico-sdk/src/common/pico_time/time.c.obj
 .text          0x00000000        0x0 CMakeFiles/hello_usb.dir/opt/pico-sdk/src/common/pico_time/timeout_helper.c.obj
 .data          0x00000000        0x0 CMakeFiles/hello_usb.dir/opt/pico-sdk/src/common/pico_time/timeout_helper.c.obj
 .bss           0x00000000        0x0 CMakeFiles/hello_usb.dir/opt/pico-sdk/src/common/pico_time/timeout_helper.c.obj
 .text.check_single_timeout_us
                0x00000000       0x2c CMakeFiles/hello_usb.dir/opt/pico-sdk/src/common/pico_time/timeout_helper.c.obj
 .text.check_per_iteration_timeout_us
                0x00000000       0x84 CMakeFiles/hello_usb.dir/opt/pico-sdk/src/common/pico_time/timeout_helper.c.obj
 .text.init_single_timeout_until
                0x00000000        0xc CMakeFiles/hello_usb.dir/opt/pico-sdk/src/common/pico_time/timeout_helper.c.obj
 .text.init_per_iteration_timeout_us
                0x00000000       0x60 CMakeFiles/hello_usb.dir/opt/pico-sdk/src/common/pico_time/timeout_helper.c.obj
 .rodata.__func__.4173
                0x00000000       0x15 CMakeFiles/hello_usb.dir/opt/pico-sdk/src/common/pico_time/timeout_helper.c.obj
 .rodata.check_per_iteration_timeout_us.str1.4
                0x00000000       0x54 CMakeFiles/hello_usb.dir/opt/pico-sdk/src/common/pico_time/timeout_helper.c.obj
 .debug_info    0x00000000      0x702 CMakeFiles/hello_usb.dir/opt/pico-sdk/src/common/pico_time/timeout_helper.c.obj
 .debug_abbrev  0x00000000      0x210 CMakeFiles/hello_usb.dir/opt/pico-sdk/src/common/pico_time/timeout_helper.c.obj
 .debug_loc     0x00000000      0x38b CMakeFiles/hello_usb.dir/opt/pico-sdk/src/common/pico_time/timeout_helper.c.obj
 .debug_aranges
                0x00000000       0x38 CMakeFiles/hello_usb.dir/opt/pico-sdk/src/common/pico_time/timeout_helper.c.obj
 .debug_ranges  0x00000000      0x148 CMakeFiles/hello_usb.dir/opt/pico-sdk/src/common/pico_time/timeout_helper.c.obj
 .debug_line    0x00000000      0x2e9 CMakeFiles/hello_usb.dir/opt/pico-sdk/src/common/pico_time/timeout_helper.c.obj
 .debug_str     0x00000000      0x401 CMakeFiles/hello_usb.dir/opt/pico-sdk/src/common/pico_time/timeout_helper.c.obj
 .comment       0x00000000       0x58 CMakeFiles/hello_usb.dir/opt/pico-sdk/src/common/pico_time/timeout_helper.c.obj
 .debug_frame   0x00000000       0x6c CMakeFiles/hello_usb.dir/opt/pico-sdk/src/common/pico_time/timeout_helper.c.obj
 .ARM.attributes
                0x00000000       0x32 CMakeFiles/hello_usb.dir/opt/pico-sdk/src/common/pico_time/timeout_helper.c.obj
 .text          0x00000000        0x0 CMakeFiles/hello_usb.dir/opt/pico-sdk/src/rp2_common/hardware_timer/timer.c.obj
 .data          0x00000000        0x0 CMakeFiles/hello_usb.dir/opt/pico-sdk/src/rp2_common/hardware_timer/timer.c.obj
 .bss           0x00000000        0x0 CMakeFiles/hello_usb.dir/opt/pico-sdk/src/rp2_common/hardware_timer/timer.c.obj
 .text.hardware_alarm_unclaim
                0x00000000       0x10 CMakeFiles/hello_usb.dir/opt/pico-sdk/src/rp2_common/hardware_timer/timer.c.obj
 .text.hardware_alarm_is_claimed
                0x00000000       0x10 CMakeFiles/hello_usb.dir/opt/pico-sdk/src/rp2_common/hardware_timer/timer.c.obj
 .text.busy_wait_us
                0x00000000       0x48 CMakeFiles/hello_usb.dir/opt/pico-sdk/src/rp2_common/hardware_timer/timer.c.obj
 .text.busy_wait_us_32
                0x00000000       0x24 CMakeFiles/hello_usb.dir/opt/pico-sdk/src/rp2_common/hardware_timer/timer.c.obj
 .text.busy_wait_ms
                0x00000000       0x30 CMakeFiles/hello_usb.dir/opt/pico-sdk/src/rp2_common/hardware_timer/timer.c.obj
 .rodata.__func__.4173
                0x00000000       0x15 CMakeFiles/hello_usb.dir/opt/pico-sdk/src/rp2_common/hardware_timer/timer.c.obj
 .rodata.busy_wait_us.str1.4
                0x00000000       0x54 CMakeFiles/hello_usb.dir/opt/pico-sdk/src/rp2_common/hardware_timer/timer.c.obj
 .text          0x00000000        0x0 CMakeFiles/hello_usb.dir/opt/pico-sdk/src/common/pico_sync/sem.c.obj
 .data          0x00000000        0x0 CMakeFiles/hello_usb.dir/opt/pico-sdk/src/common/pico_sync/sem.c.obj
 .bss           0x00000000        0x0 CMakeFiles/hello_usb.dir/opt/pico-sdk/src/common/pico_sync/sem.c.obj
 .text.sem_init
                0x00000000       0x1e CMakeFiles/hello_usb.dir/opt/pico-sdk/src/common/pico_sync/sem.c.obj
 .time_critical.sem_available
                0x00000000        0x6 CMakeFiles/hello_usb.dir/opt/pico-sdk/src/common/pico_sync/sem.c.obj
 .time_critical.sem_acquire_blocking
                0x00000000       0x42 CMakeFiles/hello_usb.dir/opt/pico-sdk/src/common/pico_sync/sem.c.obj
 .time_critical.sem_acquire_block_until
                0x00000000       0x58 CMakeFiles/hello_usb.dir/opt/pico-sdk/src/common/pico_sync/sem.c.obj
 .time_critical.sem_acquire_timeout_ms
                0x00000000       0x6c CMakeFiles/hello_usb.dir/opt/pico-sdk/src/common/pico_sync/sem.c.obj
 .time_critical.sem_acquire_timeout_us
                0x00000000       0x5c CMakeFiles/hello_usb.dir/opt/pico-sdk/src/common/pico_sync/sem.c.obj
 .time_critical.sem_release
                0x00000000       0x4a CMakeFiles/hello_usb.dir/opt/pico-sdk/src/common/pico_sync/sem.c.obj
 .time_critical.sem_reset
                0x00000000       0x68 CMakeFiles/hello_usb.dir/opt/pico-sdk/src/common/pico_sync/sem.c.obj
 .rodata.__func__.4173
                0x00000000       0x15 CMakeFiles/hello_usb.dir/opt/pico-sdk/src/common/pico_sync/sem.c.obj
 .rodata.__func__.4594
                0x00000000        0xa CMakeFiles/hello_usb.dir/opt/pico-sdk/src/common/pico_sync/sem.c.obj
 .rodata.str1.4
                0x00000000       0xa9 CMakeFiles/hello_usb.dir/opt/pico-sdk/src/common/pico_sync/sem.c.obj
 .debug_info    0x00000000      0xf32 CMakeFiles/hello_usb.dir/opt/pico-sdk/src/common/pico_sync/sem.c.obj
 .debug_abbrev  0x00000000      0x2ee CMakeFiles/hello_usb.dir/opt/pico-sdk/src/common/pico_sync/sem.c.obj
 .debug_loc     0x00000000      0x7de CMakeFiles/hello_usb.dir/opt/pico-sdk/src/common/pico_sync/sem.c.obj
 .debug_aranges
                0x00000000       0x58 CMakeFiles/hello_usb.dir/opt/pico-sdk/src/common/pico_sync/sem.c.obj
 .debug_ranges  0x00000000      0x138 CMakeFiles/hello_usb.dir/opt/pico-sdk/src/common/pico_sync/sem.c.obj
 .debug_line    0x00000000      0x3ec CMakeFiles/hello_usb.dir/opt/pico-sdk/src/common/pico_sync/sem.c.obj
 .debug_str     0x00000000      0x4eb CMakeFiles/hello_usb.dir/opt/pico-sdk/src/common/pico_sync/sem.c.obj
 .comment       0x00000000       0x58 CMakeFiles/hello_usb.dir/opt/pico-sdk/src/common/pico_sync/sem.c.obj
 .debug_frame   0x00000000       0xd8 CMakeFiles/hello_usb.dir/opt/pico-sdk/src/common/pico_sync/sem.c.obj
 .ARM.attributes
                0x00000000       0x32 CMakeFiles/hello_usb.dir/opt/pico-sdk/src/common/pico_sync/sem.c.obj
 .text          0x00000000        0x0 CMakeFiles/hello_usb.dir/opt/pico-sdk/src/common/pico_sync/lock_core.c.obj
 .data          0x00000000        0x0 CMakeFiles/hello_usb.dir/opt/pico-sdk/src/common/pico_sync/lock_core.c.obj
 .bss           0x00000000        0x0 CMakeFiles/hello_usb.dir/opt/pico-sdk/src/common/pico_sync/lock_core.c.obj
 .text          0x00000000        0x0 CMakeFiles/hello_usb.dir/opt/pico-sdk/src/common/pico_sync/mutex.c.obj
 .data          0x00000000        0x0 CMakeFiles/hello_usb.dir/opt/pico-sdk/src/common/pico_sync/mutex.c.obj
 .bss           0x00000000        0x0 CMakeFiles/hello_usb.dir/opt/pico-sdk/src/common/pico_sync/mutex.c.obj
 .time_critical.mutex_enter_timeout_us
                0x00000000       0x5c CMakeFiles/hello_usb.dir/opt/pico-sdk/src/common/pico_sync/mutex.c.obj
 .text          0x00000000        0x0 CMakeFiles/hello_usb.dir/opt/pico-sdk/src/common/pico_sync/critical_section.c.obj
 .data          0x00000000        0x0 CMakeFiles/hello_usb.dir/opt/pico-sdk/src/common/pico_sync/critical_section.c.obj
 .bss           0x00000000        0x0 CMakeFiles/hello_usb.dir/opt/pico-sdk/src/common/pico_sync/critical_section.c.obj
 .text.critical_section_deinit
                0x00000000       0x20 CMakeFiles/hello_usb.dir/opt/pico-sdk/src/common/pico_sync/critical_section.c.obj
 .text          0x00000000        0x0 CMakeFiles/hello_usb.dir/opt/pico-sdk/src/common/pico_util/datetime.c.obj
 .data          0x00000000        0x0 CMakeFiles/hello_usb.dir/opt/pico-sdk/src/common/pico_util/datetime.c.obj
 .bss           0x00000000        0x0 CMakeFiles/hello_usb.dir/opt/pico-sdk/src/common/pico_util/datetime.c.obj
 .text.datetime_to_str
                0x00000000       0x64 CMakeFiles/hello_usb.dir/opt/pico-sdk/src/common/pico_util/datetime.c.obj
 .rodata.DATETIME_DOWS
                0x00000000       0x1c CMakeFiles/hello_usb.dir/opt/pico-sdk/src/common/pico_util/datetime.c.obj
 .rodata.DATETIME_MONTHS
                0x00000000       0x30 CMakeFiles/hello_usb.dir/opt/pico-sdk/src/common/pico_util/datetime.c.obj
 .rodata.datetime_to_str.str1.4
                0x00000000       0x19 CMakeFiles/hello_usb.dir/opt/pico-sdk/src/common/pico_util/datetime.c.obj
 .rodata.str1.4
                0x00000000       0xad CMakeFiles/hello_usb.dir/opt/pico-sdk/src/common/pico_util/datetime.c.obj
 .debug_info    0x00000000      0x9f9 CMakeFiles/hello_usb.dir/opt/pico-sdk/src/common/pico_util/datetime.c.obj
 .debug_abbrev  0x00000000      0x1ed CMakeFiles/hello_usb.dir/opt/pico-sdk/src/common/pico_util/datetime.c.obj
 .debug_loc     0x00000000       0x63 CMakeFiles/hello_usb.dir/opt/pico-sdk/src/common/pico_util/datetime.c.obj
 .debug_aranges
                0x00000000       0x20 CMakeFiles/hello_usb.dir/opt/pico-sdk/src/common/pico_util/datetime.c.obj
 .debug_ranges  0x00000000       0x10 CMakeFiles/hello_usb.dir/opt/pico-sdk/src/common/pico_util/datetime.c.obj
 .debug_line    0x00000000      0x170 CMakeFiles/hello_usb.dir/opt/pico-sdk/src/common/pico_util/datetime.c.obj
 .debug_str     0x00000000      0x5ed CMakeFiles/hello_usb.dir/opt/pico-sdk/src/common/pico_util/datetime.c.obj
 .comment       0x00000000       0x58 CMakeFiles/hello_usb.dir/opt/pico-sdk/src/common/pico_util/datetime.c.obj
 .debug_frame   0x00000000       0x38 CMakeFiles/hello_usb.dir/opt/pico-sdk/src/common/pico_util/datetime.c.obj
 .ARM.attributes
                0x00000000       0x32 CMakeFiles/hello_usb.dir/opt/pico-sdk/src/common/pico_util/datetime.c.obj
 .text          0x00000000        0x0 CMakeFiles/hello_usb.dir/opt/pico-sdk/src/common/pico_util/pheap.c.obj
 .data          0x00000000        0x0 CMakeFiles/hello_usb.dir/opt/pico-sdk/src/common/pico_util/pheap.c.obj
 .bss           0x00000000        0x0 CMakeFiles/hello_usb.dir/opt/pico-sdk/src/common/pico_util/pheap.c.obj
 .text.ph_dump_node
                0x00000000       0xa4 CMakeFiles/hello_usb.dir/opt/pico-sdk/src/common/pico_util/pheap.c.obj
 .text.ph_create
                0x00000000       0x2c CMakeFiles/hello_usb.dir/opt/pico-sdk/src/common/pico_util/pheap.c.obj
 .text.ph_destroy
                0x00000000       0x12 CMakeFiles/hello_usb.dir/opt/pico-sdk/src/common/pico_util/pheap.c.obj
 .text.ph_dump  0x00000000       0x24 CMakeFiles/hello_usb.dir/opt/pico-sdk/src/common/pico_util/pheap.c.obj
 .rodata.ph_dump.str1.4
                0x00000000        0xf CMakeFiles/hello_usb.dir/opt/pico-sdk/src/common/pico_util/pheap.c.obj
 .rodata.ph_dump_node.str1.4
                0x00000000       0x15 CMakeFiles/hello_usb.dir/opt/pico-sdk/src/common/pico_util/pheap.c.obj
 .text          0x00000000        0x0 CMakeFiles/hello_usb.dir/opt/pico-sdk/src/common/pico_util/queue.c.obj
 .data          0x00000000        0x0 CMakeFiles/hello_usb.dir/opt/pico-sdk/src/common/pico_util/queue.c.obj
 .bss           0x00000000        0x0 CMakeFiles/hello_usb.dir/opt/pico-sdk/src/common/pico_util/queue.c.obj
 .text.queue_add_internal
                0x00000000       0xa0 CMakeFiles/hello_usb.dir/opt/pico-sdk/src/common/pico_util/queue.c.obj
 .text.queue_remove_internal
                0x00000000       0xa4 CMakeFiles/hello_usb.dir/opt/pico-sdk/src/common/pico_util/queue.c.obj
 .text.queue_peek_internal
                0x00000000       0x94 CMakeFiles/hello_usb.dir/opt/pico-sdk/src/common/pico_util/queue.c.obj
 .text.queue_init_with_spinlock
                0x00000000       0x24 CMakeFiles/hello_usb.dir/opt/pico-sdk/src/common/pico_util/queue.c.obj
 .text.queue_free
                0x00000000        0xa CMakeFiles/hello_usb.dir/opt/pico-sdk/src/common/pico_util/queue.c.obj
 .text.queue_try_add
                0x00000000        0xa CMakeFiles/hello_usb.dir/opt/pico-sdk/src/common/pico_util/queue.c.obj
 .text.queue_try_remove
                0x00000000        0xa CMakeFiles/hello_usb.dir/opt/pico-sdk/src/common/pico_util/queue.c.obj
 .text.queue_try_peek
                0x00000000        0xa CMakeFiles/hello_usb.dir/opt/pico-sdk/src/common/pico_util/queue.c.obj
 .text.queue_add_blocking
                0x00000000        0xa CMakeFiles/hello_usb.dir/opt/pico-sdk/src/common/pico_util/queue.c.obj
 .text.queue_remove_blocking
                0x00000000        0xa CMakeFiles/hello_usb.dir/opt/pico-sdk/src/common/pico_util/queue.c.obj
 .text.queue_peek_blocking
                0x00000000        0xa CMakeFiles/hello_usb.dir/opt/pico-sdk/src/common/pico_util/queue.c.obj
 .rodata.__func__.5391
                0x00000000        0xc CMakeFiles/hello_usb.dir/opt/pico-sdk/src/common/pico_util/queue.c.obj
 .rodata.queue_add_internal.str1.4
                0x00000000       0x47 CMakeFiles/hello_usb.dir/opt/pico-sdk/src/common/pico_util/queue.c.obj
 .debug_info    0x00000000     0x179f CMakeFiles/hello_usb.dir/opt/pico-sdk/src/common/pico_util/queue.c.obj
 .debug_abbrev  0x00000000      0x397 CMakeFiles/hello_usb.dir/opt/pico-sdk/src/common/pico_util/queue.c.obj
 .debug_loc     0x00000000      0xa59 CMakeFiles/hello_usb.dir/opt/pico-sdk/src/common/pico_util/queue.c.obj
 .debug_aranges
                0x00000000       0x70 CMakeFiles/hello_usb.dir/opt/pico-sdk/src/common/pico_util/queue.c.obj
 .debug_ranges  0x00000000       0xf0 CMakeFiles/hello_usb.dir/opt/pico-sdk/src/common/pico_util/queue.c.obj
 .debug_line    0x00000000      0x479 CMakeFiles/hello_usb.dir/opt/pico-sdk/src/common/pico_util/queue.c.obj
 .debug_str     0x00000000      0x8a5 CMakeFiles/hello_usb.dir/opt/pico-sdk/src/common/pico_util/queue.c.obj
 .comment       0x00000000       0x58 CMakeFiles/hello_usb.dir/opt/pico-sdk/src/common/pico_util/queue.c.obj
 .debug_frame   0x00000000      0x12c CMakeFiles/hello_usb.dir/opt/pico-sdk/src/common/pico_util/queue.c.obj
 .ARM.attributes
                0x00000000       0x32 CMakeFiles/hello_usb.dir/opt/pico-sdk/src/common/pico_util/queue.c.obj
 .text          0x00000000        0x0 CMakeFiles/hello_usb.dir/opt/pico-sdk/src/rp2_common/pico_runtime/runtime.c.obj
 .data          0x00000000        0x0 CMakeFiles/hello_usb.dir/opt/pico-sdk/src/rp2_common/pico_runtime/runtime.c.obj
 .bss           0x00000000        0x0 CMakeFiles/hello_usb.dir/opt/pico-sdk/src/rp2_common/pico_runtime/runtime.c.obj
 .text.runtime_install_stack_guard
                0x00000000       0x40 CMakeFiles/hello_usb.dir/opt/pico-sdk/src/rp2_common/pico_runtime/runtime.c.obj
 .text._sbrk    0x00000000       0x38 CMakeFiles/hello_usb.dir/opt/pico-sdk/src/rp2_common/pico_runtime/runtime.c.obj
 .text.panic_unsupported
                0x00000000        0xc CMakeFiles/hello_usb.dir/opt/pico-sdk/src/rp2_common/pico_runtime/runtime.c.obj
 .text.hard_assertion_failure
                0x00000000        0xc CMakeFiles/hello_usb.dir/opt/pico-sdk/src/rp2_common/pico_runtime/runtime.c.obj
 .bss.heap_end.5754
                0x00000000        0x4 CMakeFiles/hello_usb.dir/opt/pico-sdk/src/rp2_common/pico_runtime/runtime.c.obj
 .rodata.hard_assertion_failure.str1.4
                0x00000000        0xc CMakeFiles/hello_usb.dir/opt/pico-sdk/src/rp2_common/pico_runtime/runtime.c.obj
 .rodata.panic_unsupported.str1.4
                0x00000000        0xe CMakeFiles/hello_usb.dir/opt/pico-sdk/src/rp2_common/pico_runtime/runtime.c.obj
 .text          0x00000000        0x0 CMakeFiles/hello_usb.dir/opt/pico-sdk/src/rp2_common/hardware_clocks/clocks.c.obj
 .data          0x00000000        0x0 CMakeFiles/hello_usb.dir/opt/pico-sdk/src/rp2_common/hardware_clocks/clocks.c.obj
 .bss           0x00000000        0x0 CMakeFiles/hello_usb.dir/opt/pico-sdk/src/rp2_common/hardware_clocks/clocks.c.obj
 .text.clock_stop
                0x00000000       0x2c CMakeFiles/hello_usb.dir/opt/pico-sdk/src/rp2_common/hardware_clocks/clocks.c.obj
 .text.clock_get_hz
                0x00000000        0xc CMakeFiles/hello_usb.dir/opt/pico-sdk/src/rp2_common/hardware_clocks/clocks.c.obj
 .text.clocks_handle_resus
                0x00000000       0x80 CMakeFiles/hello_usb.dir/opt/pico-sdk/src/rp2_common/hardware_clocks/clocks.c.obj
 .text.clocks_irq_handler
                0x00000000       0x2c CMakeFiles/hello_usb.dir/opt/pico-sdk/src/rp2_common/hardware_clocks/clocks.c.obj
 .text.clock_set_reported_hz
                0x00000000        0xc CMakeFiles/hello_usb.dir/opt/pico-sdk/src/rp2_common/hardware_clocks/clocks.c.obj
 .text.frequency_count_khz
                0x00000000       0x40 CMakeFiles/hello_usb.dir/opt/pico-sdk/src/rp2_common/hardware_clocks/clocks.c.obj
 .text.clocks_enable_resus
                0x00000000       0x34 CMakeFiles/hello_usb.dir/opt/pico-sdk/src/rp2_common/hardware_clocks/clocks.c.obj
 .text.clock_gpio_init
                0x00000000       0x4c CMakeFiles/hello_usb.dir/opt/pico-sdk/src/rp2_common/hardware_clocks/clocks.c.obj
 .text.clock_configure_gpin
                0x00000000       0x50 CMakeFiles/hello_usb.dir/opt/pico-sdk/src/rp2_common/hardware_clocks/clocks.c.obj
 .bss._resus_callback
                0x00000000        0x4 CMakeFiles/hello_usb.dir/opt/pico-sdk/src/rp2_common/hardware_clocks/clocks.c.obj
 .rodata.__func__.4670
                0x00000000       0x14 CMakeFiles/hello_usb.dir/opt/pico-sdk/src/rp2_common/hardware_clocks/clocks.c.obj
 .rodata.clocks_handle_resus.str1.4
                0x00000000       0x8b CMakeFiles/hello_usb.dir/opt/pico-sdk/src/rp2_common/hardware_clocks/clocks.c.obj
 .rodata.clocks_irq_handler.str1.4
                0x00000000       0x17 CMakeFiles/hello_usb.dir/opt/pico-sdk/src/rp2_common/hardware_clocks/clocks.c.obj
 .rodata.gpin0_src
                0x00000000        0xa CMakeFiles/hello_usb.dir/opt/pico-sdk/src/rp2_common/hardware_clocks/clocks.c.obj
 .text          0x00000000        0x0 CMakeFiles/hello_usb.dir/opt/pico-sdk/src/rp2_common/hardware_irq/irq.c.obj
 .data          0x00000000        0x0 CMakeFiles/hello_usb.dir/opt/pico-sdk/src/rp2_common/hardware_irq/irq.c.obj
 .bss           0x00000000        0x0 CMakeFiles/hello_usb.dir/opt/pico-sdk/src/rp2_common/hardware_irq/irq.c.obj
 .text.irq_get_exclusive_handler
                0x00000000       0x4c CMakeFiles/hello_usb.dir/opt/pico-sdk/src/rp2_common/hardware_irq/irq.c.obj
 .text.irq_add_shared_handler
                0x00000000      0x224 CMakeFiles/hello_usb.dir/opt/pico-sdk/src/rp2_common/hardware_irq/irq.c.obj
 .rodata.__func__.4706
                0x00000000       0x17 CMakeFiles/hello_usb.dir/opt/pico-sdk/src/rp2_common/hardware_irq/irq.c.obj
 .text          0x00000000        0x0 CMakeFiles/hello_usb.dir/opt/pico-sdk/src/rp2_common/hardware_irq/irq_handler_chain.S.obj
 .bss           0x00000000        0x0 CMakeFiles/hello_usb.dir/opt/pico-sdk/src/rp2_common/hardware_irq/irq_handler_chain.S.obj
 .text          0x00000000        0x0 CMakeFiles/hello_usb.dir/opt/pico-sdk/src/rp2_common/hardware_pll/pll.c.obj
 .data          0x00000000        0x0 CMakeFiles/hello_usb.dir/opt/pico-sdk/src/rp2_common/hardware_pll/pll.c.obj
 .bss           0x00000000        0x0 CMakeFiles/hello_usb.dir/opt/pico-sdk/src/rp2_common/hardware_pll/pll.c.obj
 .text.pll_deinit
                0x00000000        0x6 CMakeFiles/hello_usb.dir/opt/pico-sdk/src/rp2_common/hardware_pll/pll.c.obj
 .text          0x00000000        0x0 CMakeFiles/hello_usb.dir/opt/pico-sdk/src/rp2_common/hardware_vreg/vreg.c.obj
 .data          0x00000000        0x0 CMakeFiles/hello_usb.dir/opt/pico-sdk/src/rp2_common/hardware_vreg/vreg.c.obj
 .bss           0x00000000        0x0 CMakeFiles/hello_usb.dir/opt/pico-sdk/src/rp2_common/hardware_vreg/vreg.c.obj
 .text.vreg_set_voltage
                0x00000000       0x1c CMakeFiles/hello_usb.dir/opt/pico-sdk/src/rp2_common/hardware_vreg/vreg.c.obj
 .debug_info    0x00000000      0x217 CMakeFiles/hello_usb.dir/opt/pico-sdk/src/rp2_common/hardware_vreg/vreg.c.obj
 .debug_abbrev  0x00000000       0xfc CMakeFiles/hello_usb.dir/opt/pico-sdk/src/rp2_common/hardware_vreg/vreg.c.obj
 .debug_loc     0x00000000       0x8c CMakeFiles/hello_usb.dir/opt/pico-sdk/src/rp2_common/hardware_vreg/vreg.c.obj
 .debug_aranges
                0x00000000       0x20 CMakeFiles/hello_usb.dir/opt/pico-sdk/src/rp2_common/hardware_vreg/vreg.c.obj
 .debug_ranges  0x00000000       0x10 CMakeFiles/hello_usb.dir/opt/pico-sdk/src/rp2_common/hardware_vreg/vreg.c.obj
 .debug_line    0x00000000      0x1f3 CMakeFiles/hello_usb.dir/opt/pico-sdk/src/rp2_common/hardware_vreg/vreg.c.obj
 .debug_str     0x00000000      0x330 CMakeFiles/hello_usb.dir/opt/pico-sdk/src/rp2_common/hardware_vreg/vreg.c.obj
 .comment       0x00000000       0x58 CMakeFiles/hello_usb.dir/opt/pico-sdk/src/rp2_common/hardware_vreg/vreg.c.obj
 .debug_frame   0x00000000       0x20 CMakeFiles/hello_usb.dir/opt/pico-sdk/src/rp2_common/hardware_vreg/vreg.c.obj
 .ARM.attributes
                0x00000000       0x32 CMakeFiles/hello_usb.dir/opt/pico-sdk/src/rp2_common/hardware_vreg/vreg.c.obj
 .text          0x00000000        0x0 CMakeFiles/hello_usb.dir/opt/pico-sdk/src/rp2_common/hardware_watchdog/watchdog.c.obj
 .data          0x00000000        0x0 CMakeFiles/hello_usb.dir/opt/pico-sdk/src/rp2_common/hardware_watchdog/watchdog.c.obj
 .bss           0x00000000        0x0 CMakeFiles/hello_usb.dir/opt/pico-sdk/src/rp2_common/hardware_watchdog/watchdog.c.obj
 .text.watchdog_get_count
                0x00000000       0x10 CMakeFiles/hello_usb.dir/opt/pico-sdk/src/rp2_common/hardware_watchdog/watchdog.c.obj
 .text.watchdog_enable
                0x00000000       0x14 CMakeFiles/hello_usb.dir/opt/pico-sdk/src/rp2_common/hardware_watchdog/watchdog.c.obj
 .text.watchdog_caused_reboot
                0x00000000       0x10 CMakeFiles/hello_usb.dir/opt/pico-sdk/src/rp2_common/hardware_watchdog/watchdog.c.obj
 .text          0x00000000        0x0 CMakeFiles/hello_usb.dir/opt/pico-sdk/src/rp2_common/hardware_xosc/xosc.c.obj
 .data          0x00000000        0x0 CMakeFiles/hello_usb.dir/opt/pico-sdk/src/rp2_common/hardware_xosc/xosc.c.obj
 .bss           0x00000000        0x0 CMakeFiles/hello_usb.dir/opt/pico-sdk/src/rp2_common/hardware_xosc/xosc.c.obj
 .text.xosc_disable
                0x00000000       0x24 CMakeFiles/hello_usb.dir/opt/pico-sdk/src/rp2_common/hardware_xosc/xosc.c.obj
 .text.xosc_dormant
                0x00000000       0x18 CMakeFiles/hello_usb.dir/opt/pico-sdk/src/rp2_common/hardware_xosc/xosc.c.obj
 .text          0x00000000        0x0 CMakeFiles/hello_usb.dir/opt/pico-sdk/src/rp2_common/pico_printf/printf.c.obj
 .data          0x00000000        0x0 CMakeFiles/hello_usb.dir/opt/pico-sdk/src/rp2_common/pico_printf/printf.c.obj
 .bss           0x00000000        0x0 CMakeFiles/hello_usb.dir/opt/pico-sdk/src/rp2_common/pico_printf/printf.c.obj
 .text._out_buffer
                0x00000000        0x8 CMakeFiles/hello_usb.dir/opt/pico-sdk/src/rp2_common/pico_printf/printf.c.obj
 .text.__wrap_sprintf
                0x00000000       0x28 CMakeFiles/hello_usb.dir/opt/pico-sdk/src/rp2_common/pico_printf/printf.c.obj
 .text.__wrap_snprintf
                0x00000000       0x28 CMakeFiles/hello_usb.dir/opt/pico-sdk/src/rp2_common/pico_printf/printf.c.obj
 .text.__wrap_vsnprintf
                0x00000000       0x1c CMakeFiles/hello_usb.dir/opt/pico-sdk/src/rp2_common/pico_printf/printf.c.obj
 .data          0x00000000        0x0 CMakeFiles/hello_usb.dir/opt/pico-sdk/src/rp2_common/pico_bit_ops/bit_ops_aeabi.S.obj
 .bss           0x00000000        0x0 CMakeFiles/hello_usb.dir/opt/pico-sdk/src/rp2_common/pico_bit_ops/bit_ops_aeabi.S.obj
 .text.clzsi    0x00000000        0xc CMakeFiles/hello_usb.dir/opt/pico-sdk/src/rp2_common/pico_bit_ops/bit_ops_aeabi.S.obj
 .text.ctzsi    0x00000000        0xc CMakeFiles/hello_usb.dir/opt/pico-sdk/src/rp2_common/pico_bit_ops/bit_ops_aeabi.S.obj
 .text.popcountsi
                0x00000000        0xc CMakeFiles/hello_usb.dir/opt/pico-sdk/src/rp2_common/pico_bit_ops/bit_ops_aeabi.S.obj
 .text.clzdi    0x00000000       0x18 CMakeFiles/hello_usb.dir/opt/pico-sdk/src/rp2_common/pico_bit_ops/bit_ops_aeabi.S.obj
 .text.ctzdi    0x00000000       0x18 CMakeFiles/hello_usb.dir/opt/pico-sdk/src/rp2_common/pico_bit_ops/bit_ops_aeabi.S.obj
 .text.popcountdi
                0x00000000       0x18 CMakeFiles/hello_usb.dir/opt/pico-sdk/src/rp2_common/pico_bit_ops/bit_ops_aeabi.S.obj
 .text.reverse32
                0x00000000        0xc CMakeFiles/hello_usb.dir/opt/pico-sdk/src/rp2_common/pico_bit_ops/bit_ops_aeabi.S.obj
 .text.__rev    0x00000000        0xc CMakeFiles/hello_usb.dir/opt/pico-sdk/src/rp2_common/pico_bit_ops/bit_ops_aeabi.S.obj
 .text.__revll  0x00000000       0x18 CMakeFiles/hello_usb.dir/opt/pico-sdk/src/rp2_common/pico_bit_ops/bit_ops_aeabi.S.obj
 .text          0x00000000        0x0 CMakeFiles/hello_usb.dir/opt/pico-sdk/src/rp2_common/pico_bootrom/bootrom.c.obj
 .data          0x00000000        0x0 CMakeFiles/hello_usb.dir/opt/pico-sdk/src/rp2_common/pico_bootrom/bootrom.c.obj
 .bss           0x00000000        0x0 CMakeFiles/hello_usb.dir/opt/pico-sdk/src/rp2_common/pico_bootrom/bootrom.c.obj
 .text          0x00000000        0x0 CMakeFiles/hello_usb.dir/opt/pico-sdk/src/rp2_common/pico_divider/divider.S.obj
 .data          0x00000000        0x0 CMakeFiles/hello_usb.dir/opt/pico-sdk/src/rp2_common/pico_divider/divider.S.obj
 .bss           0x00000000        0x0 CMakeFiles/hello_usb.dir/opt/pico-sdk/src/rp2_common/pico_divider/divider.S.obj
 .text.divmod_s64s64_rem
                0x00000000        0xc CMakeFiles/hello_usb.dir/opt/pico-sdk/src/rp2_common/pico_divider/divider.S.obj
 .text.divmod_u64u64_rem
                0x00000000        0xc CMakeFiles/hello_usb.dir/opt/pico-sdk/src/rp2_common/pico_divider/divider.S.obj
 .text          0x00000000        0x0 CMakeFiles/hello_usb.dir/opt/pico-sdk/src/rp2_common/pico_double/double_aeabi.S.obj
 .data          0x00000000        0x0 CMakeFiles/hello_usb.dir/opt/pico-sdk/src/rp2_common/pico_double/double_aeabi.S.obj
 .bss           0x00000000        0x0 CMakeFiles/hello_usb.dir/opt/pico-sdk/src/rp2_common/pico_double/double_aeabi.S.obj
 .text.push_r8_r11
                0x00000000        0xc CMakeFiles/hello_usb.dir/opt/pico-sdk/src/rp2_common/pico_double/double_aeabi.S.obj
 .text.pop_r8_r11
                0x00000000        0xc CMakeFiles/hello_usb.dir/opt/pico-sdk/src/rp2_common/pico_double/double_aeabi.S.obj
 .text.__wrap___aeabi_dcmpeq
                0x00000000       0x10 CMakeFiles/hello_usb.dir/opt/pico-sdk/src/rp2_common/pico_double/double_aeabi.S.obj
 .text.__wrap___aeabi_ui2d
                0x00000000       0x18 CMakeFiles/hello_usb.dir/opt/pico-sdk/src/rp2_common/pico_double/double_aeabi.S.obj
 .text.double2int
                0x00000000       0x18 CMakeFiles/hello_usb.dir/opt/pico-sdk/src/rp2_common/pico_double/double_aeabi.S.obj
 .text.fix2double
                0x00000000       0x18 CMakeFiles/hello_usb.dir/opt/pico-sdk/src/rp2_common/pico_double/double_aeabi.S.obj
 .text.ufix2double
                0x00000000       0x28 CMakeFiles/hello_usb.dir/opt/pico-sdk/src/rp2_common/pico_double/double_aeabi.S.obj
 .text.fix642double
                0x00000000       0x18 CMakeFiles/hello_usb.dir/opt/pico-sdk/src/rp2_common/pico_double/double_aeabi.S.obj
 .text.__wrap___aeabi_l2d
                0x00000000       0x18 CMakeFiles/hello_usb.dir/opt/pico-sdk/src/rp2_common/pico_double/double_aeabi.S.obj
 .text.__wrap___aeabi_ul2d
                0x00000000       0x18 CMakeFiles/hello_usb.dir/opt/pico-sdk/src/rp2_common/pico_double/double_aeabi.S.obj
 .text.__wrap___aeabi_d2lz
                0x00000000       0x26 CMakeFiles/hello_usb.dir/opt/pico-sdk/src/rp2_common/pico_double/double_aeabi.S.obj
 .text.double2int64
                0x00000000       0x18 CMakeFiles/hello_usb.dir/opt/pico-sdk/src/rp2_common/pico_double/double_aeabi.S.obj
 .text.__wrap___aeabi_d2ulz
                0x00000000       0x18 CMakeFiles/hello_usb.dir/opt/pico-sdk/src/rp2_common/pico_double/double_aeabi.S.obj
 .text.double2fix64
                0x00000000       0x18 CMakeFiles/hello_usb.dir/opt/pico-sdk/src/rp2_common/pico_double/double_aeabi.S.obj
 .text.double2ufix64
                0x00000000       0x18 CMakeFiles/hello_usb.dir/opt/pico-sdk/src/rp2_common/pico_double/double_aeabi.S.obj
 .text.double2fix
                0x00000000       0x18 CMakeFiles/hello_usb.dir/opt/pico-sdk/src/rp2_common/pico_double/double_aeabi.S.obj
 .text.double2ufix
                0x00000000       0x18 CMakeFiles/hello_usb.dir/opt/pico-sdk/src/rp2_common/pico_double/double_aeabi.S.obj
 .text.__wrap___aeabi_d2f
                0x00000000       0x18 CMakeFiles/hello_usb.dir/opt/pico-sdk/src/rp2_common/pico_double/double_aeabi.S.obj
 .text.__wrap_srqt
                0x00000000       0x18 CMakeFiles/hello_usb.dir/opt/pico-sdk/src/rp2_common/pico_double/double_aeabi.S.obj
 .text.__wrap_sincostan_remainder
                0x00000000       0x14 CMakeFiles/hello_usb.dir/opt/pico-sdk/src/rp2_common/pico_double/double_aeabi.S.obj
 .text.__wrap_cos
                0x00000000       0x2c CMakeFiles/hello_usb.dir/opt/pico-sdk/src/rp2_common/pico_double/double_aeabi.S.obj
 .text.__wrap_sin
                0x00000000       0x2c CMakeFiles/hello_usb.dir/opt/pico-sdk/src/rp2_common/pico_double/double_aeabi.S.obj
 .text.__wrap_sincos
                0x00000000       0xa0 CMakeFiles/hello_usb.dir/opt/pico-sdk/src/rp2_common/pico_double/double_aeabi.S.obj
 .text.__wrap_tan
                0x00000000       0x5c CMakeFiles/hello_usb.dir/opt/pico-sdk/src/rp2_common/pico_double/double_aeabi.S.obj
 .text.__wrap_atan2
                0x00000000       0x18 CMakeFiles/hello_usb.dir/opt/pico-sdk/src/rp2_common/pico_double/double_aeabi.S.obj
 .text.__wrap_exp
                0x00000000       0x18 CMakeFiles/hello_usb.dir/opt/pico-sdk/src/rp2_common/pico_double/double_aeabi.S.obj
 .text.__wrap_log
                0x00000000       0x18 CMakeFiles/hello_usb.dir/opt/pico-sdk/src/rp2_common/pico_double/double_aeabi.S.obj
 .text          0x00000000        0x0 CMakeFiles/hello_usb.dir/opt/pico-sdk/src/rp2_common/pico_double/double_init_rom.c.obj
 .data          0x00000000        0x0 CMakeFiles/hello_usb.dir/opt/pico-sdk/src/rp2_common/pico_double/double_init_rom.c.obj
 .bss           0x00000000        0x0 CMakeFiles/hello_usb.dir/opt/pico-sdk/src/rp2_common/pico_double/double_init_rom.c.obj
 .text          0x00000000        0x0 CMakeFiles/hello_usb.dir/opt/pico-sdk/src/rp2_common/pico_double/double_math.c.obj
 .data          0x00000000        0x0 CMakeFiles/hello_usb.dir/opt/pico-sdk/src/rp2_common/pico_double/double_math.c.obj
 .bss           0x00000000        0x0 CMakeFiles/hello_usb.dir/opt/pico-sdk/src/rp2_common/pico_double/double_math.c.obj
 .text.dpow_int2
                0x00000000       0x40 CMakeFiles/hello_usb.dir/opt/pico-sdk/src/rp2_common/pico_double/double_math.c.obj
 .text.drem_0   0x00000000      0x12e CMakeFiles/hello_usb.dir/opt/pico-sdk/src/rp2_common/pico_double/double_math.c.obj
 .text.dpow_1   0x00000000      0x26c CMakeFiles/hello_usb.dir/opt/pico-sdk/src/rp2_common/pico_double/double_math.c.obj
 .text.dpowint_0
                0x00000000      0x168 CMakeFiles/hello_usb.dir/opt/pico-sdk/src/rp2_common/pico_double/double_math.c.obj
 .text.dpow_0   0x00000000      0x170 CMakeFiles/hello_usb.dir/opt/pico-sdk/src/rp2_common/pico_double/double_math.c.obj
 .text.__wrap_ldexp
                0x00000000       0x4c CMakeFiles/hello_usb.dir/opt/pico-sdk/src/rp2_common/pico_double/double_math.c.obj
 .text.__wrap_copysign
                0x00000000       0x14 CMakeFiles/hello_usb.dir/opt/pico-sdk/src/rp2_common/pico_double/double_math.c.obj
 .text.__wrap_trunc
                0x00000000       0x54 CMakeFiles/hello_usb.dir/opt/pico-sdk/src/rp2_common/pico_double/double_math.c.obj
 .text.__wrap_round
                0x00000000       0x9c CMakeFiles/hello_usb.dir/opt/pico-sdk/src/rp2_common/pico_double/double_math.c.obj
 .text.__wrap_floor
                0x00000000       0xa8 CMakeFiles/hello_usb.dir/opt/pico-sdk/src/rp2_common/pico_double/double_math.c.obj
 .text.__wrap_ceil
                0x00000000       0xac CMakeFiles/hello_usb.dir/opt/pico-sdk/src/rp2_common/pico_double/double_math.c.obj
 .text.__wrap_asin
                0x00000000       0x58 CMakeFiles/hello_usb.dir/opt/pico-sdk/src/rp2_common/pico_double/double_math.c.obj
 .text.__wrap_acos
                0x00000000       0x54 CMakeFiles/hello_usb.dir/opt/pico-sdk/src/rp2_common/pico_double/double_math.c.obj
 .text.__wrap_atan
                0x00000000       0x40 CMakeFiles/hello_usb.dir/opt/pico-sdk/src/rp2_common/pico_double/double_math.c.obj
 .text.__wrap_sinh
                0x00000000       0x78 CMakeFiles/hello_usb.dir/opt/pico-sdk/src/rp2_common/pico_double/double_math.c.obj
 .text.__wrap_cosh
                0x00000000       0x78 CMakeFiles/hello_usb.dir/opt/pico-sdk/src/rp2_common/pico_double/double_math.c.obj
 .text.__wrap_tanh
                0x00000000       0xa0 CMakeFiles/hello_usb.dir/opt/pico-sdk/src/rp2_common/pico_double/double_math.c.obj
 .text.__wrap_asinh
                0x00000000       0xc0 CMakeFiles/hello_usb.dir/opt/pico-sdk/src/rp2_common/pico_double/double_math.c.obj
 .text.__wrap_acosh
                0x00000000       0x78 CMakeFiles/hello_usb.dir/opt/pico-sdk/src/rp2_common/pico_double/double_math.c.obj
 .text.__wrap_atanh
                0x00000000       0x80 CMakeFiles/hello_usb.dir/opt/pico-sdk/src/rp2_common/pico_double/double_math.c.obj
 .text.__wrap_exp2
                0x00000000       0xc8 CMakeFiles/hello_usb.dir/opt/pico-sdk/src/rp2_common/pico_double/double_math.c.obj
 .text.__wrap_log2
                0x00000000       0x18 CMakeFiles/hello_usb.dir/opt/pico-sdk/src/rp2_common/pico_double/double_math.c.obj
 .text.__wrap_exp10
                0x00000000       0x14 CMakeFiles/hello_usb.dir/opt/pico-sdk/src/rp2_common/pico_double/double_math.c.obj
 .text.__wrap_log10
                0x00000000       0x18 CMakeFiles/hello_usb.dir/opt/pico-sdk/src/rp2_common/pico_double/double_math.c.obj
 .text.__wrap_expm1
                0x00000000       0x14 CMakeFiles/hello_usb.dir/opt/pico-sdk/src/rp2_common/pico_double/double_math.c.obj
 .text.__wrap_log1p
                0x00000000       0x14 CMakeFiles/hello_usb.dir/opt/pico-sdk/src/rp2_common/pico_double/double_math.c.obj
 .text.__wrap_fma
                0x00000000       0x10 CMakeFiles/hello_usb.dir/opt/pico-sdk/src/rp2_common/pico_double/double_math.c.obj
 .text.__wrap_powint
                0x00000000       0xbc CMakeFiles/hello_usb.dir/opt/pico-sdk/src/rp2_common/pico_double/double_math.c.obj
 .text.__wrap_pow
                0x00000000      0x384 CMakeFiles/hello_usb.dir/opt/pico-sdk/src/rp2_common/pico_double/double_math.c.obj
 .text.__wrap_hypot
                0x00000000      0x270 CMakeFiles/hello_usb.dir/opt/pico-sdk/src/rp2_common/pico_double/double_math.c.obj
 .text.__wrap_cbrt
                0x00000000       0xe4 CMakeFiles/hello_usb.dir/opt/pico-sdk/src/rp2_common/pico_double/double_math.c.obj
 .text.__wrap_fmod
                0x00000000       0x90 CMakeFiles/hello_usb.dir/opt/pico-sdk/src/rp2_common/pico_double/double_math.c.obj
 .text.__wrap_remquo
                0x00000000      0x150 CMakeFiles/hello_usb.dir/opt/pico-sdk/src/rp2_common/pico_double/double_math.c.obj
 .text.__wrap_drem
                0x00000000       0x10 CMakeFiles/hello_usb.dir/opt/pico-sdk/src/rp2_common/pico_double/double_math.c.obj
 .text.__wrap_remainder
                0x00000000       0x10 CMakeFiles/hello_usb.dir/opt/pico-sdk/src/rp2_common/pico_double/double_math.c.obj
 .debug_info    0x00000000     0x2bf7 CMakeFiles/hello_usb.dir/opt/pico-sdk/src/rp2_common/pico_double/double_math.c.obj
 .debug_abbrev  0x00000000      0x3e9 CMakeFiles/hello_usb.dir/opt/pico-sdk/src/rp2_common/pico_double/double_math.c.obj
 .debug_loc     0x00000000     0x469b CMakeFiles/hello_usb.dir/opt/pico-sdk/src/rp2_common/pico_double/double_math.c.obj
 .debug_aranges
                0x00000000      0x130 CMakeFiles/hello_usb.dir/opt/pico-sdk/src/rp2_common/pico_double/double_math.c.obj
 .debug_ranges  0x00000000      0x378 CMakeFiles/hello_usb.dir/opt/pico-sdk/src/rp2_common/pico_double/double_math.c.obj
 .debug_line    0x00000000      0x89a CMakeFiles/hello_usb.dir/opt/pico-sdk/src/rp2_common/pico_double/double_math.c.obj
 .debug_str     0x00000000      0x884 CMakeFiles/hello_usb.dir/opt/pico-sdk/src/rp2_common/pico_double/double_math.c.obj
 .comment       0x00000000       0x58 CMakeFiles/hello_usb.dir/opt/pico-sdk/src/rp2_common/pico_double/double_math.c.obj
 .debug_frame   0x00000000      0x434 CMakeFiles/hello_usb.dir/opt/pico-sdk/src/rp2_common/pico_double/double_math.c.obj
 .ARM.attributes
                0x00000000       0x32 CMakeFiles/hello_usb.dir/opt/pico-sdk/src/rp2_common/pico_double/double_math.c.obj
 .text          0x00000000        0x0 CMakeFiles/hello_usb.dir/opt/pico-sdk/src/rp2_common/pico_double/double_v1_rom_shim.S.obj
 .data          0x00000000        0x0 CMakeFiles/hello_usb.dir/opt/pico-sdk/src/rp2_common/pico_double/double_v1_rom_shim.S.obj
 .bss           0x00000000        0x0 CMakeFiles/hello_usb.dir/opt/pico-sdk/src/rp2_common/pico_double/double_v1_rom_shim.S.obj
 .text.dsqrt_shim
                0x00000000      0x1a8 CMakeFiles/hello_usb.dir/opt/pico-sdk/src/rp2_common/pico_double/double_v1_rom_shim.S.obj
 .text.dcordic_vec_step
                0x00000000        0xe CMakeFiles/hello_usb.dir/opt/pico-sdk/src/rp2_common/pico_double/double_v1_rom_shim.S.obj
 .text.double2int_shim
                0x00000000        0xe CMakeFiles/hello_usb.dir/opt/pico-sdk/src/rp2_common/pico_double/double_v1_rom_shim.S.obj
 .text.double2int64_shim
                0x00000000       0x1a CMakeFiles/hello_usb.dir/opt/pico-sdk/src/rp2_common/pico_double/double_v1_rom_shim.S.obj
 .text.double2float_shim
                0x00000000       0x5c CMakeFiles/hello_usb.dir/opt/pico-sdk/src/rp2_common/pico_double/double_v1_rom_shim.S.obj
 .text.x2double_shims
                0x00000000       0x90 CMakeFiles/hello_usb.dir/opt/pico-sdk/src/rp2_common/pico_double/double_v1_rom_shim.S.obj
 .text.dreduce  0x00000000       0x82 CMakeFiles/hello_usb.dir/opt/pico-sdk/src/rp2_common/pico_double/double_v1_rom_shim.S.obj
 .text.dtan_shim
                0x00000000       0x20 CMakeFiles/hello_usb.dir/opt/pico-sdk/src/rp2_common/pico_double/double_v1_rom_shim.S.obj
 .text.dcos_shim
                0x00000000       0x10 CMakeFiles/hello_usb.dir/opt/pico-sdk/src/rp2_common/pico_double/double_v1_rom_shim.S.obj
 .text.dsin_shim
                0x00000000       0x14 CMakeFiles/hello_usb.dir/opt/pico-sdk/src/rp2_common/pico_double/double_v1_rom_shim.S.obj
 .text.dsincos_shim
                0x00000000       0x20 CMakeFiles/hello_usb.dir/opt/pico-sdk/src/rp2_common/pico_double/double_v1_rom_shim.S.obj
 .text.dtrig_guts
                0x00000000      0x2ec CMakeFiles/hello_usb.dir/opt/pico-sdk/src/rp2_common/pico_double/double_v1_rom_shim.S.obj
 .text.dexp_guts
                0x00000000      0x268 CMakeFiles/hello_usb.dir/opt/pico-sdk/src/rp2_common/pico_double/double_v1_rom_shim.S.obj
 .text          0x00000000        0x0 CMakeFiles/hello_usb.dir/opt/pico-sdk/src/rp2_common/pico_int64_ops/pico_int64_ops_aeabi.S.obj
 .data          0x00000000        0x0 CMakeFiles/hello_usb.dir/opt/pico-sdk/src/rp2_common/pico_int64_ops/pico_int64_ops_aeabi.S.obj
 .bss           0x00000000        0x0 CMakeFiles/hello_usb.dir/opt/pico-sdk/src/rp2_common/pico_int64_ops/pico_int64_ops_aeabi.S.obj
 .text          0x00000000        0x0 CMakeFiles/hello_usb.dir/opt/pico-sdk/src/rp2_common/pico_float/float_aeabi.S.obj
 .data          0x00000000        0x0 CMakeFiles/hello_usb.dir/opt/pico-sdk/src/rp2_common/pico_float/float_aeabi.S.obj
 .bss           0x00000000        0x0 CMakeFiles/hello_usb.dir/opt/pico-sdk/src/rp2_common/pico_float/float_aeabi.S.obj
 .text.__wrap___aeabi_farithmetic
                0x00000000       0x58 CMakeFiles/hello_usb.dir/opt/pico-sdk/src/rp2_common/pico_float/float_aeabi.S.obj
 .text.__wrap___aeabi_cfcmple
                0x00000000       0x50 CMakeFiles/hello_usb.dir/opt/pico-sdk/src/rp2_common/pico_float/float_aeabi.S.obj
 .text.__wrap___aeabi_fcmpeq
                0x00000000       0x10 CMakeFiles/hello_usb.dir/opt/pico-sdk/src/rp2_common/pico_float/float_aeabi.S.obj
 .text.__wrap___aeabi_fcmplt
                0x00000000        0xc CMakeFiles/hello_usb.dir/opt/pico-sdk/src/rp2_common/pico_float/float_aeabi.S.obj
 .text.__wrap___aeabi_fcmple
                0x00000000       0x10 CMakeFiles/hello_usb.dir/opt/pico-sdk/src/rp2_common/pico_float/float_aeabi.S.obj
 .text.__wrap___aeabi_fcmpge
                0x00000000       0x10 CMakeFiles/hello_usb.dir/opt/pico-sdk/src/rp2_common/pico_float/float_aeabi.S.obj
 .text.__wrap___aeabi_fcmpgt
                0x00000000        0xa CMakeFiles/hello_usb.dir/opt/pico-sdk/src/rp2_common/pico_float/float_aeabi.S.obj
 .text.__wrap___aeabi_fcmpun
                0x00000000       0x18 CMakeFiles/hello_usb.dir/opt/pico-sdk/src/rp2_common/pico_float/float_aeabi.S.obj
 .text.__wrap___aeabi_ui2f
                0x00000000        0xa CMakeFiles/hello_usb.dir/opt/pico-sdk/src/rp2_common/pico_float/float_aeabi.S.obj
 .text.__wrap___aeabi_i2f
                0x00000000       0x44 CMakeFiles/hello_usb.dir/opt/pico-sdk/src/rp2_common/pico_float/float_aeabi.S.obj
 .text.__wrap___aeabi_f2iz
                0x00000000       0x4e CMakeFiles/hello_usb.dir/opt/pico-sdk/src/rp2_common/pico_float/float_aeabi.S.obj
 .text.float2int
                0x00000000       0x14 CMakeFiles/hello_usb.dir/opt/pico-sdk/src/rp2_common/pico_float/float_aeabi.S.obj
 .text.float2fix
                0x00000000       0x14 CMakeFiles/hello_usb.dir/opt/pico-sdk/src/rp2_common/pico_float/float_aeabi.S.obj
 .text.float2ufix
                0x00000000       0x10 CMakeFiles/hello_usb.dir/opt/pico-sdk/src/rp2_common/pico_float/float_aeabi.S.obj
 .text.__wrap___aeabi_f2uiz
                0x00000000       0x10 CMakeFiles/hello_usb.dir/opt/pico-sdk/src/rp2_common/pico_float/float_aeabi.S.obj
 .text.fix2float
                0x00000000       0x10 CMakeFiles/hello_usb.dir/opt/pico-sdk/src/rp2_common/pico_float/float_aeabi.S.obj
 .text.ufix2float
                0x00000000       0x10 CMakeFiles/hello_usb.dir/opt/pico-sdk/src/rp2_common/pico_float/float_aeabi.S.obj
 .text.fix642float
                0x00000000       0x14 CMakeFiles/hello_usb.dir/opt/pico-sdk/src/rp2_common/pico_float/float_aeabi.S.obj
 .text.ufix642float
                0x00000000       0x14 CMakeFiles/hello_usb.dir/opt/pico-sdk/src/rp2_common/pico_float/float_aeabi.S.obj
 .text.__wrap___aeabi_l2f
                0x00000000       0x20 CMakeFiles/hello_usb.dir/opt/pico-sdk/src/rp2_common/pico_float/float_aeabi.S.obj
 .text.__wrap___aeabi_ul2f
                0x00000000       0x20 CMakeFiles/hello_usb.dir/opt/pico-sdk/src/rp2_common/pico_float/float_aeabi.S.obj
 .text.__wrap___aeabi_f2lz
                0x00000000       0x26 CMakeFiles/hello_usb.dir/opt/pico-sdk/src/rp2_common/pico_float/float_aeabi.S.obj
 .text.float2int64
                0x00000000       0x14 CMakeFiles/hello_usb.dir/opt/pico-sdk/src/rp2_common/pico_float/float_aeabi.S.obj
 .text.float2fix64
                0x00000000       0x14 CMakeFiles/hello_usb.dir/opt/pico-sdk/src/rp2_common/pico_float/float_aeabi.S.obj
 .text.__wrap___aeabi_f2ulz
                0x00000000       0x14 CMakeFiles/hello_usb.dir/opt/pico-sdk/src/rp2_common/pico_float/float_aeabi.S.obj
 .text.float2ufix64
                0x00000000       0x14 CMakeFiles/hello_usb.dir/opt/pico-sdk/src/rp2_common/pico_float/float_aeabi.S.obj
 .text.__wrap___aeabi_f2d
                0x00000000       0x14 CMakeFiles/hello_usb.dir/opt/pico-sdk/src/rp2_common/pico_float/float_aeabi.S.obj
 .text.__wrap_srqtf
                0x00000000       0x24 CMakeFiles/hello_usb.dir/opt/pico-sdk/src/rp2_common/pico_float/float_aeabi.S.obj
 .text.__wrap_cosf
                0x00000000       0x28 CMakeFiles/hello_usb.dir/opt/pico-sdk/src/rp2_common/pico_float/float_aeabi.S.obj
 .text.__wrap_sinf
                0x00000000       0x28 CMakeFiles/hello_usb.dir/opt/pico-sdk/src/rp2_common/pico_float/float_aeabi.S.obj
 .text.__wrap_sincosf
                0x00000000       0x30 CMakeFiles/hello_usb.dir/opt/pico-sdk/src/rp2_common/pico_float/float_aeabi.S.obj
 .text.__wrap_tanf
                0x00000000       0x50 CMakeFiles/hello_usb.dir/opt/pico-sdk/src/rp2_common/pico_float/float_aeabi.S.obj
 .text.__wrap_atan2f
                0x00000000       0x14 CMakeFiles/hello_usb.dir/opt/pico-sdk/src/rp2_common/pico_float/float_aeabi.S.obj
 .text.__wrap_expf
                0x00000000       0x10 CMakeFiles/hello_usb.dir/opt/pico-sdk/src/rp2_common/pico_float/float_aeabi.S.obj
 .text.__wrap_logf
                0x00000000       0x10 CMakeFiles/hello_usb.dir/opt/pico-sdk/src/rp2_common/pico_float/float_aeabi.S.obj
 .text          0x00000000        0x0 CMakeFiles/hello_usb.dir/opt/pico-sdk/src/rp2_common/pico_float/float_init_rom.c.obj
 .data          0x00000000        0x0 CMakeFiles/hello_usb.dir/opt/pico-sdk/src/rp2_common/pico_float/float_init_rom.c.obj
 .bss           0x00000000        0x0 CMakeFiles/hello_usb.dir/opt/pico-sdk/src/rp2_common/pico_float/float_init_rom.c.obj
 .text          0x00000000        0x0 CMakeFiles/hello_usb.dir/opt/pico-sdk/src/rp2_common/pico_float/float_math.c.obj
 .data          0x00000000        0x0 CMakeFiles/hello_usb.dir/opt/pico-sdk/src/rp2_common/pico_float/float_math.c.obj
 .bss           0x00000000        0x0 CMakeFiles/hello_usb.dir/opt/pico-sdk/src/rp2_common/pico_float/float_math.c.obj
 .text.fpow_int2
                0x00000000       0x32 CMakeFiles/hello_usb.dir/opt/pico-sdk/src/rp2_common/pico_float/float_math.c.obj
 .text.frem_0   0x00000000       0x82 CMakeFiles/hello_usb.dir/opt/pico-sdk/src/rp2_common/pico_float/float_math.c.obj
 .text.fpow_0   0x00000000      0x104 CMakeFiles/hello_usb.dir/opt/pico-sdk/src/rp2_common/pico_float/float_math.c.obj
 .text.fpowint_0
                0x00000000      0x104 CMakeFiles/hello_usb.dir/opt/pico-sdk/src/rp2_common/pico_float/float_math.c.obj
 .text.__wrap_ldexpf
                0x00000000       0x32 CMakeFiles/hello_usb.dir/opt/pico-sdk/src/rp2_common/pico_float/float_math.c.obj
 .text.__wrap_copysignf
                0x00000000        0xc CMakeFiles/hello_usb.dir/opt/pico-sdk/src/rp2_common/pico_float/float_math.c.obj
 .text.__wrap_truncf
                0x00000000       0x22 CMakeFiles/hello_usb.dir/opt/pico-sdk/src/rp2_common/pico_float/float_math.c.obj
 .text.__wrap_roundf
                0x00000000       0x3e CMakeFiles/hello_usb.dir/opt/pico-sdk/src/rp2_common/pico_float/float_math.c.obj
 .text.__wrap_floorf
                0x00000000       0x40 CMakeFiles/hello_usb.dir/opt/pico-sdk/src/rp2_common/pico_float/float_math.c.obj
 .text.__wrap_ceilf
                0x00000000       0x40 CMakeFiles/hello_usb.dir/opt/pico-sdk/src/rp2_common/pico_float/float_math.c.obj
 .text.__wrap_asinf
                0x00000000       0x42 CMakeFiles/hello_usb.dir/opt/pico-sdk/src/rp2_common/pico_float/float_math.c.obj
 .text.__wrap_acosf
                0x00000000       0x40 CMakeFiles/hello_usb.dir/opt/pico-sdk/src/rp2_common/pico_float/float_math.c.obj
 .text.__wrap_atanf
                0x00000000       0x2c CMakeFiles/hello_usb.dir/opt/pico-sdk/src/rp2_common/pico_float/float_math.c.obj
 .text.__wrap_sinhf
                0x00000000       0x50 CMakeFiles/hello_usb.dir/opt/pico-sdk/src/rp2_common/pico_float/float_math.c.obj
 .text.__wrap_coshf
                0x00000000       0x50 CMakeFiles/hello_usb.dir/opt/pico-sdk/src/rp2_common/pico_float/float_math.c.obj
 .text.__wrap_tanhf
                0x00000000       0x6c CMakeFiles/hello_usb.dir/opt/pico-sdk/src/rp2_common/pico_float/float_math.c.obj
 .text.__wrap_asinhf
                0x00000000       0xb8 CMakeFiles/hello_usb.dir/opt/pico-sdk/src/rp2_common/pico_float/float_math.c.obj
 .text.__wrap_acoshf
                0x00000000       0x74 CMakeFiles/hello_usb.dir/opt/pico-sdk/src/rp2_common/pico_float/float_math.c.obj
 .text.__wrap_atanhf
                0x00000000       0x58 CMakeFiles/hello_usb.dir/opt/pico-sdk/src/rp2_common/pico_float/float_math.c.obj
 .text.__wrap_exp2f
                0x00000000       0x20 CMakeFiles/hello_usb.dir/opt/pico-sdk/src/rp2_common/pico_float/float_math.c.obj
 .text.__wrap_log2f
                0x00000000       0x14 CMakeFiles/hello_usb.dir/opt/pico-sdk/src/rp2_common/pico_float/float_math.c.obj
 .text.__wrap_exp10f
                0x00000000       0x20 CMakeFiles/hello_usb.dir/opt/pico-sdk/src/rp2_common/pico_float/float_math.c.obj
 .text.__wrap_log10f
                0x00000000       0x14 CMakeFiles/hello_usb.dir/opt/pico-sdk/src/rp2_common/pico_float/float_math.c.obj
 .text.__wrap_expm1f
                0x00000000       0x1c CMakeFiles/hello_usb.dir/opt/pico-sdk/src/rp2_common/pico_float/float_math.c.obj
 .text.__wrap_log1pf
                0x00000000       0x1c CMakeFiles/hello_usb.dir/opt/pico-sdk/src/rp2_common/pico_float/float_math.c.obj
 .text.__wrap_fmaf
                0x00000000       0x3c CMakeFiles/hello_usb.dir/opt/pico-sdk/src/rp2_common/pico_float/float_math.c.obj
 .text.__wrap_powintf
                0x00000000       0xa0 CMakeFiles/hello_usb.dir/opt/pico-sdk/src/rp2_common/pico_float/float_math.c.obj
 .text.__wrap_powf
                0x00000000      0x1f4 CMakeFiles/hello_usb.dir/opt/pico-sdk/src/rp2_common/pico_float/float_math.c.obj
 .text.__wrap_hypotf
                0x00000000      0x180 CMakeFiles/hello_usb.dir/opt/pico-sdk/src/rp2_common/pico_float/float_math.c.obj
 .text.__wrap_cbrtf
                0x00000000       0xb0 CMakeFiles/hello_usb.dir/opt/pico-sdk/src/rp2_common/pico_float/float_math.c.obj
 .text.__wrap_fmodf
                0x00000000       0x62 CMakeFiles/hello_usb.dir/opt/pico-sdk/src/rp2_common/pico_float/float_math.c.obj
 .text.__wrap_remquof
                0x00000000       0xdc CMakeFiles/hello_usb.dir/opt/pico-sdk/src/rp2_common/pico_float/float_math.c.obj
 .text.__wrap_dremf
                0x00000000        0xa CMakeFiles/hello_usb.dir/opt/pico-sdk/src/rp2_common/pico_float/float_math.c.obj
 .text.__wrap_remainderf
                0x00000000        0xa CMakeFiles/hello_usb.dir/opt/pico-sdk/src/rp2_common/pico_float/float_math.c.obj
 .debug_info    0x00000000     0x2971 CMakeFiles/hello_usb.dir/opt/pico-sdk/src/rp2_common/pico_float/float_math.c.obj
 .debug_abbrev  0x00000000      0x3e2 CMakeFiles/hello_usb.dir/opt/pico-sdk/src/rp2_common/pico_float/float_math.c.obj
 .debug_loc     0x00000000     0x31d3 CMakeFiles/hello_usb.dir/opt/pico-sdk/src/rp2_common/pico_float/float_math.c.obj
 .debug_aranges
                0x00000000      0x128 CMakeFiles/hello_usb.dir/opt/pico-sdk/src/rp2_common/pico_float/float_math.c.obj
 .debug_ranges  0x00000000      0x298 CMakeFiles/hello_usb.dir/opt/pico-sdk/src/rp2_common/pico_float/float_math.c.obj
 .debug_line    0x00000000      0x7e2 CMakeFiles/hello_usb.dir/opt/pico-sdk/src/rp2_common/pico_float/float_math.c.obj
 .debug_str     0x00000000      0x886 CMakeFiles/hello_usb.dir/opt/pico-sdk/src/rp2_common/pico_float/float_math.c.obj
 .comment       0x00000000       0x58 CMakeFiles/hello_usb.dir/opt/pico-sdk/src/rp2_common/pico_float/float_math.c.obj
 .debug_frame   0x00000000      0x388 CMakeFiles/hello_usb.dir/opt/pico-sdk/src/rp2_common/pico_float/float_math.c.obj
 .ARM.attributes
                0x00000000       0x32 CMakeFiles/hello_usb.dir/opt/pico-sdk/src/rp2_common/pico_float/float_math.c.obj
 .text          0x00000000        0x0 CMakeFiles/hello_usb.dir/opt/pico-sdk/src/rp2_common/pico_float/float_v1_rom_shim.S.obj
 .data          0x00000000        0x0 CMakeFiles/hello_usb.dir/opt/pico-sdk/src/rp2_common/pico_float/float_v1_rom_shim.S.obj
 .bss           0x00000000        0x0 CMakeFiles/hello_usb.dir/opt/pico-sdk/src/rp2_common/pico_float/float_v1_rom_shim.S.obj
 .text.642float_shims
                0x00000000       0x44 CMakeFiles/hello_usb.dir/opt/pico-sdk/src/rp2_common/pico_float/float_v1_rom_shim.S.obj
 .text.fatan2_shim
                0x00000000       0x88 CMakeFiles/hello_usb.dir/opt/pico-sdk/src/rp2_common/pico_float/float_v1_rom_shim.S.obj
 .text.float232_shims
                0x00000000       0x18 CMakeFiles/hello_usb.dir/opt/pico-sdk/src/rp2_common/pico_float/float_v1_rom_shim.S.obj
 .text.float264_shims
                0x00000000       0x4c CMakeFiles/hello_usb.dir/opt/pico-sdk/src/rp2_common/pico_float/float_v1_rom_shim.S.obj
 .text.d2fix_a_float
                0x00000000       0x5c CMakeFiles/hello_usb.dir/opt/pico-sdk/src/rp2_common/pico_float/float_v1_rom_shim.S.obj
 .text.float2double_shim
                0x00000000       0x30 CMakeFiles/hello_usb.dir/opt/pico-sdk/src/rp2_common/pico_float/float_v1_rom_shim.S.obj
 .text          0x00000000        0x0 CMakeFiles/hello_usb.dir/opt/pico-sdk/src/rp2_common/pico_malloc/pico_malloc.c.obj
 .data          0x00000000        0x0 CMakeFiles/hello_usb.dir/opt/pico-sdk/src/rp2_common/pico_malloc/pico_malloc.c.obj
 .bss           0x00000000        0x0 CMakeFiles/hello_usb.dir/opt/pico-sdk/src/rp2_common/pico_malloc/pico_malloc.c.obj
 .text.__wrap_malloc
                0x00000000       0x24 CMakeFiles/hello_usb.dir/opt/pico-sdk/src/rp2_common/pico_malloc/pico_malloc.c.obj
 .text.__wrap_calloc
                0x00000000       0x24 CMakeFiles/hello_usb.dir/opt/pico-sdk/src/rp2_common/pico_malloc/pico_malloc.c.obj
 .text.__wrap_free
                0x00000000        0x8 CMakeFiles/hello_usb.dir/opt/pico-sdk/src/rp2_common/pico_malloc/pico_malloc.c.obj
 .rodata.__wrap_malloc.str1.4
                0x00000000        0xe CMakeFiles/hello_usb.dir/opt/pico-sdk/src/rp2_common/pico_malloc/pico_malloc.c.obj
 .debug_info    0x00000000      0xa51 CMakeFiles/hello_usb.dir/opt/pico-sdk/src/rp2_common/pico_malloc/pico_malloc.c.obj
 .debug_abbrev  0x00000000      0x25f CMakeFiles/hello_usb.dir/opt/pico-sdk/src/rp2_common/pico_malloc/pico_malloc.c.obj
 .debug_loc     0x00000000      0x102 CMakeFiles/hello_usb.dir/opt/pico-sdk/src/rp2_common/pico_malloc/pico_malloc.c.obj
 .debug_aranges
                0x00000000       0x30 CMakeFiles/hello_usb.dir/opt/pico-sdk/src/rp2_common/pico_malloc/pico_malloc.c.obj
 .debug_ranges  0x00000000       0x50 CMakeFiles/hello_usb.dir/opt/pico-sdk/src/rp2_common/pico_malloc/pico_malloc.c.obj
 .debug_line    0x00000000      0x17a CMakeFiles/hello_usb.dir/opt/pico-sdk/src/rp2_common/pico_malloc/pico_malloc.c.obj
 .debug_str     0x00000000      0x5ff CMakeFiles/hello_usb.dir/opt/pico-sdk/src/rp2_common/pico_malloc/pico_malloc.c.obj
 .comment       0x00000000       0x58 CMakeFiles/hello_usb.dir/opt/pico-sdk/src/rp2_common/pico_malloc/pico_malloc.c.obj
 .debug_frame   0x00000000       0x58 CMakeFiles/hello_usb.dir/opt/pico-sdk/src/rp2_common/pico_malloc/pico_malloc.c.obj
 .ARM.attributes
                0x00000000       0x32 CMakeFiles/hello_usb.dir/opt/pico-sdk/src/rp2_common/pico_malloc/pico_malloc.c.obj
 .data          0x00000000        0x0 CMakeFiles/hello_usb.dir/opt/pico-sdk/src/rp2_common/pico_mem_ops/mem_ops_aeabi.S.obj
 .bss           0x00000000        0x0 CMakeFiles/hello_usb.dir/opt/pico-sdk/src/rp2_common/pico_mem_ops/mem_ops_aeabi.S.obj
 .text.aeabi_memset_memcpy
                0x00000000       0x24 CMakeFiles/hello_usb.dir/opt/pico-sdk/src/rp2_common/pico_mem_ops/mem_ops_aeabi.S.obj
 .text          0x00000000        0x0 CMakeFiles/hello_usb.dir/opt/pico-sdk/src/rp2_common/pico_standard_link/crt0.S.obj
 .data          0x00000000        0x0 CMakeFiles/hello_usb.dir/opt/pico-sdk/src/rp2_common/pico_standard_link/crt0.S.obj
 .bss           0x00000000        0x0 CMakeFiles/hello_usb.dir/opt/pico-sdk/src/rp2_common/pico_standard_link/crt0.S.obj
 .text          0x00000000        0x0 CMakeFiles/hello_usb.dir/opt/pico-sdk/src/rp2_common/pico_standard_link/new_delete.cpp.obj
 .data          0x00000000        0x0 CMakeFiles/hello_usb.dir/opt/pico-sdk/src/rp2_common/pico_standard_link/new_delete.cpp.obj
 .bss           0x00000000        0x0 CMakeFiles/hello_usb.dir/opt/pico-sdk/src/rp2_common/pico_standard_link/new_delete.cpp.obj
 .text._Znwj    0x00000000        0x8 CMakeFiles/hello_usb.dir/opt/pico-sdk/src/rp2_common/pico_standard_link/new_delete.cpp.obj
 .text._Znaj    0x00000000        0x8 CMakeFiles/hello_usb.dir/opt/pico-sdk/src/rp2_common/pico_standard_link/new_delete.cpp.obj
 .text._ZdlPv   0x00000000        0x8 CMakeFiles/hello_usb.dir/opt/pico-sdk/src/rp2_common/pico_standard_link/new_delete.cpp.obj
 .text._ZdaPv   0x00000000        0x8 CMakeFiles/hello_usb.dir/opt/pico-sdk/src/rp2_common/pico_standard_link/new_delete.cpp.obj
 .text._ZdlPvj  0x00000000        0x8 CMakeFiles/hello_usb.dir/opt/pico-sdk/src/rp2_common/pico_standard_link/new_delete.cpp.obj
 .text._ZdaPvj  0x00000000        0x8 CMakeFiles/hello_usb.dir/opt/pico-sdk/src/rp2_common/pico_standard_link/new_delete.cpp.obj
 .debug_info    0x00000000      0xf1d CMakeFiles/hello_usb.dir/opt/pico-sdk/src/rp2_common/pico_standard_link/new_delete.cpp.obj
 .debug_abbrev  0x00000000      0x2c3 CMakeFiles/hello_usb.dir/opt/pico-sdk/src/rp2_common/pico_standard_link/new_delete.cpp.obj
 .debug_loc     0x00000000      0x108 CMakeFiles/hello_usb.dir/opt/pico-sdk/src/rp2_common/pico_standard_link/new_delete.cpp.obj
 .debug_aranges
                0x00000000       0x48 CMakeFiles/hello_usb.dir/opt/pico-sdk/src/rp2_common/pico_standard_link/new_delete.cpp.obj
 .debug_ranges  0x00000000       0x38 CMakeFiles/hello_usb.dir/opt/pico-sdk/src/rp2_common/pico_standard_link/new_delete.cpp.obj
 .debug_line    0x00000000      0x1d1 CMakeFiles/hello_usb.dir/opt/pico-sdk/src/rp2_common/pico_standard_link/new_delete.cpp.obj
 .debug_str     0x00000000      0x788 CMakeFiles/hello_usb.dir/opt/pico-sdk/src/rp2_common/pico_standard_link/new_delete.cpp.obj
 .comment       0x00000000       0x58 CMakeFiles/hello_usb.dir/opt/pico-sdk/src/rp2_common/pico_standard_link/new_delete.cpp.obj
 .debug_frame   0x00000000       0xa0 CMakeFiles/hello_usb.dir/opt/pico-sdk/src/rp2_common/pico_standard_link/new_delete.cpp.obj
 .ARM.attributes
                0x00000000       0x32 CMakeFiles/hello_usb.dir/opt/pico-sdk/src/rp2_common/pico_standard_link/new_delete.cpp.obj
 .text          0x00000000        0x0 CMakeFiles/hello_usb.dir/opt/pico-sdk/src/rp2_common/pico_standard_link/binary_info.c.obj
 .data          0x00000000        0x0 CMakeFiles/hello_usb.dir/opt/pico-sdk/src/rp2_common/pico_standard_link/binary_info.c.obj
 .bss           0x00000000        0x0 CMakeFiles/hello_usb.dir/opt/pico-sdk/src/rp2_common/pico_standard_link/binary_info.c.obj
 .text          0x00000000        0x0 CMakeFiles/hello_usb.dir/opt/pico-sdk/src/rp2_common/pico_stdio/stdio.c.obj
 .data          0x00000000        0x0 CMakeFiles/hello_usb.dir/opt/pico-sdk/src/rp2_common/pico_stdio/stdio.c.obj
 .bss           0x00000000        0x0 CMakeFiles/hello_usb.dir/opt/pico-sdk/src/rp2_common/pico_stdio/stdio.c.obj
 .text.stdio_get_until
                0x00000000       0x7c CMakeFiles/hello_usb.dir/opt/pico-sdk/src/rp2_common/pico_stdio/stdio.c.obj
 .text.__wrap_putchar
                0x00000000       0x1a CMakeFiles/hello_usb.dir/opt/pico-sdk/src/rp2_common/pico_stdio/stdio.c.obj
 .text._read    0x00000000       0x24 CMakeFiles/hello_usb.dir/opt/pico-sdk/src/rp2_common/pico_stdio/stdio.c.obj
 .text._write   0x00000000       0x1e CMakeFiles/hello_usb.dir/opt/pico-sdk/src/rp2_common/pico_stdio/stdio.c.obj
 .text.__wrap_getchar
                0x00000000       0x40 CMakeFiles/hello_usb.dir/opt/pico-sdk/src/rp2_common/pico_stdio/stdio.c.obj
 .text.getchar_timeout_us
                0x00000000       0x80 CMakeFiles/hello_usb.dir/opt/pico-sdk/src/rp2_common/pico_stdio/stdio.c.obj
 .text.stdio_filter_driver
                0x00000000        0xc CMakeFiles/hello_usb.dir/opt/pico-sdk/src/rp2_common/pico_stdio/stdio.c.obj
 .text.stdio_set_translate_crlf
                0x00000000       0x10 CMakeFiles/hello_usb.dir/opt/pico-sdk/src/rp2_common/pico_stdio/stdio.c.obj
 .rodata.__func__.5371
                0x00000000       0x15 CMakeFiles/hello_usb.dir/opt/pico-sdk/src/rp2_common/pico_stdio/stdio.c.obj
 .rodata.__func__.5909
                0x00000000        0xf CMakeFiles/hello_usb.dir/opt/pico-sdk/src/rp2_common/pico_stdio/stdio.c.obj
 .rodata.__func__.5915
                0x00000000       0x13 CMakeFiles/hello_usb.dir/opt/pico-sdk/src/rp2_common/pico_stdio/stdio.c.obj
 .rodata.__wrap_getchar.str1.4
                0x00000000       0x3c CMakeFiles/hello_usb.dir/opt/pico-sdk/src/rp2_common/pico_stdio/stdio.c.obj
 .rodata.getchar_timeout_us.str1.4
                0x00000000       0x57 CMakeFiles/hello_usb.dir/opt/pico-sdk/src/rp2_common/pico_stdio/stdio.c.obj
 .text          0x00000000        0x0 CMakeFiles/hello_usb.dir/opt/pico-sdk/src/rp2_common/pico_stdio_usb/reset_interface.c.obj
 .data          0x00000000        0x0 CMakeFiles/hello_usb.dir/opt/pico-sdk/src/rp2_common/pico_stdio_usb/reset_interface.c.obj
 .bss           0x00000000        0x0 CMakeFiles/hello_usb.dir/opt/pico-sdk/src/rp2_common/pico_stdio_usb/reset_interface.c.obj
 .text          0x00000000        0x0 CMakeFiles/hello_usb.dir/opt/pico-sdk/src/rp2_common/pico_stdio_usb/stdio_usb.c.obj
 .data          0x00000000        0x0 CMakeFiles/hello_usb.dir/opt/pico-sdk/src/rp2_common/pico_stdio_usb/stdio_usb.c.obj
 .bss           0x00000000        0x0 CMakeFiles/hello_usb.dir/opt/pico-sdk/src/rp2_common/pico_stdio_usb/stdio_usb.c.obj
 .text          0x00000000        0x0 CMakeFiles/hello_usb.dir/opt/pico-sdk/src/rp2_common/pico_stdio_usb/stdio_usb_descriptors.c.obj
 .data          0x00000000        0x0 CMakeFiles/hello_usb.dir/opt/pico-sdk/src/rp2_common/pico_stdio_usb/stdio_usb_descriptors.c.obj
 .bss           0x00000000        0x0 CMakeFiles/hello_usb.dir/opt/pico-sdk/src/rp2_common/pico_stdio_usb/stdio_usb_descriptors.c.obj
 .text          0x00000000        0x0 CMakeFiles/hello_usb.dir/opt/pico-sdk/lib/tinyusb/src/portable/raspberrypi/rp2040/dcd_rp2040.c.obj
 .data          0x00000000        0x0 CMakeFiles/hello_usb.dir/opt/pico-sdk/lib/tinyusb/src/portable/raspberrypi/rp2040/dcd_rp2040.c.obj
 .bss           0x00000000        0x0 CMakeFiles/hello_usb.dir/opt/pico-sdk/lib/tinyusb/src/portable/raspberrypi/rp2040/dcd_rp2040.c.obj
 .text.dcd_int_disable
                0x00000000       0x2c CMakeFiles/hello_usb.dir/opt/pico-sdk/lib/tinyusb/src/portable/raspberrypi/rp2040/dcd_rp2040.c.obj
 .text.dcd_remote_wakeup
                0x00000000       0x30 CMakeFiles/hello_usb.dir/opt/pico-sdk/lib/tinyusb/src/portable/raspberrypi/rp2040/dcd_rp2040.c.obj
 .text.dcd_disconnect
                0x00000000       0x30 CMakeFiles/hello_usb.dir/opt/pico-sdk/lib/tinyusb/src/portable/raspberrypi/rp2040/dcd_rp2040.c.obj
 .text.dcd_edpt_close
                0x00000000        0x2 CMakeFiles/hello_usb.dir/opt/pico-sdk/lib/tinyusb/src/portable/raspberrypi/rp2040/dcd_rp2040.c.obj
 .text.dcd_int_handler
                0x00000000        0x8 CMakeFiles/hello_usb.dir/opt/pico-sdk/lib/tinyusb/src/portable/raspberrypi/rp2040/dcd_rp2040.c.obj
 .rodata.__func__.6887
                0x00000000       0x10 CMakeFiles/hello_usb.dir/opt/pico-sdk/lib/tinyusb/src/portable/raspberrypi/rp2040/dcd_rp2040.c.obj
 .rodata.__func__.6896
                0x00000000       0x12 CMakeFiles/hello_usb.dir/opt/pico-sdk/lib/tinyusb/src/portable/raspberrypi/rp2040/dcd_rp2040.c.obj
 .rodata.__func__.6900
                0x00000000        0xf CMakeFiles/hello_usb.dir/opt/pico-sdk/lib/tinyusb/src/portable/raspberrypi/rp2040/dcd_rp2040.c.obj
 .text          0x00000000        0x0 CMakeFiles/hello_usb.dir/opt/pico-sdk/lib/tinyusb/src/portable/raspberrypi/rp2040/rp2040_usb.c.obj
 .data          0x00000000        0x0 CMakeFiles/hello_usb.dir/opt/pico-sdk/lib/tinyusb/src/portable/raspberrypi/rp2040/rp2040_usb.c.obj
 .bss           0x00000000        0x0 CMakeFiles/hello_usb.dir/opt/pico-sdk/lib/tinyusb/src/portable/raspberrypi/rp2040/rp2040_usb.c.obj
 .text          0x00000000        0x0 CMakeFiles/hello_usb.dir/opt/pico-sdk/lib/tinyusb/src/device/usbd.c.obj
 .data          0x00000000        0x0 CMakeFiles/hello_usb.dir/opt/pico-sdk/lib/tinyusb/src/device/usbd.c.obj
 .bss           0x00000000        0x0 CMakeFiles/hello_usb.dir/opt/pico-sdk/lib/tinyusb/src/device/usbd.c.obj
 .text.tud_speed_get
                0x00000000        0xc CMakeFiles/hello_usb.dir/opt/pico-sdk/lib/tinyusb/src/device/usbd.c.obj
 .text.tud_connected
                0x00000000       0x10 CMakeFiles/hello_usb.dir/opt/pico-sdk/lib/tinyusb/src/device/usbd.c.obj
 .text.tud_remote_wakeup
                0x00000000       0x2c CMakeFiles/hello_usb.dir/opt/pico-sdk/lib/tinyusb/src/device/usbd.c.obj
 .text.tud_disconnect
                0x00000000       0x1c CMakeFiles/hello_usb.dir/opt/pico-sdk/lib/tinyusb/src/device/usbd.c.obj
 .text.tud_connect
                0x00000000       0x1c CMakeFiles/hello_usb.dir/opt/pico-sdk/lib/tinyusb/src/device/usbd.c.obj
 .text.tud_task_event_ready
                0x00000000       0x20 CMakeFiles/hello_usb.dir/opt/pico-sdk/lib/tinyusb/src/device/usbd.c.obj
 .text.usbd_defer_func
                0x00000000       0x1e CMakeFiles/hello_usb.dir/opt/pico-sdk/lib/tinyusb/src/device/usbd.c.obj
 .text.usbd_edpt_xfer_fifo
                0x00000000       0x80 CMakeFiles/hello_usb.dir/opt/pico-sdk/lib/tinyusb/src/device/usbd.c.obj
 .text.usbd_edpt_busy
                0x00000000       0x1c CMakeFiles/hello_usb.dir/opt/pico-sdk/lib/tinyusb/src/device/usbd.c.obj
 .text.usbd_edpt_close
                0x00000000       0x2c CMakeFiles/hello_usb.dir/opt/pico-sdk/lib/tinyusb/src/device/usbd.c.obj
 .rodata.__func__.7461
                0x00000000       0x14 CMakeFiles/hello_usb.dir/opt/pico-sdk/lib/tinyusb/src/device/usbd.c.obj
 .rodata.__func__.7490
                0x00000000       0x10 CMakeFiles/hello_usb.dir/opt/pico-sdk/lib/tinyusb/src/device/usbd.c.obj
 .text          0x00000000        0x0 CMakeFiles/hello_usb.dir/opt/pico-sdk/lib/tinyusb/src/device/usbd_control.c.obj
 .data          0x00000000        0x0 CMakeFiles/hello_usb.dir/opt/pico-sdk/lib/tinyusb/src/device/usbd_control.c.obj
 .bss           0x00000000        0x0 CMakeFiles/hello_usb.dir/opt/pico-sdk/lib/tinyusb/src/device/usbd_control.c.obj
 .text          0x00000000        0x0 CMakeFiles/hello_usb.dir/opt/pico-sdk/lib/tinyusb/src/class/audio/audio_device.c.obj
 .data          0x00000000        0x0 CMakeFiles/hello_usb.dir/opt/pico-sdk/lib/tinyusb/src/class/audio/audio_device.c.obj
 .bss           0x00000000        0x0 CMakeFiles/hello_usb.dir/opt/pico-sdk/lib/tinyusb/src/class/audio/audio_device.c.obj
 .debug_info    0x00000000       0x86 CMakeFiles/hello_usb.dir/opt/pico-sdk/lib/tinyusb/src/class/audio/audio_device.c.obj
 .debug_abbrev  0x00000000       0x4d CMakeFiles/hello_usb.dir/opt/pico-sdk/lib/tinyusb/src/class/audio/audio_device.c.obj
 .debug_aranges
                0x00000000       0x18 CMakeFiles/hello_usb.dir/opt/pico-sdk/lib/tinyusb/src/class/audio/audio_device.c.obj
 .debug_line    0x00000000       0xa5 CMakeFiles/hello_usb.dir/opt/pico-sdk/lib/tinyusb/src/class/audio/audio_device.c.obj
 .debug_str     0x00000000      0x1b3 CMakeFiles/hello_usb.dir/opt/pico-sdk/lib/tinyusb/src/class/audio/audio_device.c.obj
 .comment       0x00000000       0x58 CMakeFiles/hello_usb.dir/opt/pico-sdk/lib/tinyusb/src/class/audio/audio_device.c.obj
 .ARM.attributes
                0x00000000       0x32 CMakeFiles/hello_usb.dir/opt/pico-sdk/lib/tinyusb/src/class/audio/audio_device.c.obj
 .text          0x00000000        0x0 CMakeFiles/hello_usb.dir/opt/pico-sdk/lib/tinyusb/src/class/cdc/cdc_device.c.obj
 .data          0x00000000        0x0 CMakeFiles/hello_usb.dir/opt/pico-sdk/lib/tinyusb/src/class/cdc/cdc_device.c.obj
 .bss           0x00000000        0x0 CMakeFiles/hello_usb.dir/opt/pico-sdk/lib/tinyusb/src/class/cdc/cdc_device.c.obj
 .text.tud_cdc_n_get_line_state
                0x00000000       0x14 CMakeFiles/hello_usb.dir/opt/pico-sdk/lib/tinyusb/src/class/cdc/cdc_device.c.obj
 .text.tud_cdc_n_get_line_coding
                0x00000000       0x20 CMakeFiles/hello_usb.dir/opt/pico-sdk/lib/tinyusb/src/class/cdc/cdc_device.c.obj
 .text.tud_cdc_n_set_wanted_char
                0x00000000       0x14 CMakeFiles/hello_usb.dir/opt/pico-sdk/lib/tinyusb/src/class/cdc/cdc_device.c.obj
 .text.tud_cdc_n_peek
                0x00000000       0x1c CMakeFiles/hello_usb.dir/opt/pico-sdk/lib/tinyusb/src/class/cdc/cdc_device.c.obj
 .text.tud_cdc_n_read_flush
                0x00000000       0x20 CMakeFiles/hello_usb.dir/opt/pico-sdk/lib/tinyusb/src/class/cdc/cdc_device.c.obj
 .text.tud_cdc_n_write_clear
                0x00000000       0x1c CMakeFiles/hello_usb.dir/opt/pico-sdk/lib/tinyusb/src/class/cdc/cdc_device.c.obj
 .text          0x00000000        0x0 CMakeFiles/hello_usb.dir/opt/pico-sdk/lib/tinyusb/src/class/dfu/dfu_device.c.obj
 .data          0x00000000        0x0 CMakeFiles/hello_usb.dir/opt/pico-sdk/lib/tinyusb/src/class/dfu/dfu_device.c.obj
 .bss           0x00000000        0x0 CMakeFiles/hello_usb.dir/opt/pico-sdk/lib/tinyusb/src/class/dfu/dfu_device.c.obj
 .debug_info    0x00000000       0x86 CMakeFiles/hello_usb.dir/opt/pico-sdk/lib/tinyusb/src/class/dfu/dfu_device.c.obj
 .debug_abbrev  0x00000000       0x4d CMakeFiles/hello_usb.dir/opt/pico-sdk/lib/tinyusb/src/class/dfu/dfu_device.c.obj
 .debug_aranges
                0x00000000       0x18 CMakeFiles/hello_usb.dir/opt/pico-sdk/lib/tinyusb/src/class/dfu/dfu_device.c.obj
 .debug_line    0x00000000       0xa5 CMakeFiles/hello_usb.dir/opt/pico-sdk/lib/tinyusb/src/class/dfu/dfu_device.c.obj
 .debug_str     0x00000000      0x1af CMakeFiles/hello_usb.dir/opt/pico-sdk/lib/tinyusb/src/class/dfu/dfu_device.c.obj
 .comment       0x00000000       0x58 CMakeFiles/hello_usb.dir/opt/pico-sdk/lib/tinyusb/src/class/dfu/dfu_device.c.obj
 .ARM.attributes
                0x00000000       0x32 CMakeFiles/hello_usb.dir/opt/pico-sdk/lib/tinyusb/src/class/dfu/dfu_device.c.obj
 .text          0x00000000        0x0 CMakeFiles/hello_usb.dir/opt/pico-sdk/lib/tinyusb/src/class/dfu/dfu_rt_device.c.obj
 .data          0x00000000        0x0 CMakeFiles/hello_usb.dir/opt/pico-sdk/lib/tinyusb/src/class/dfu/dfu_rt_device.c.obj
 .bss           0x00000000        0x0 CMakeFiles/hello_usb.dir/opt/pico-sdk/lib/tinyusb/src/class/dfu/dfu_rt_device.c.obj
 .debug_info    0x00000000       0x86 CMakeFiles/hello_usb.dir/opt/pico-sdk/lib/tinyusb/src/class/dfu/dfu_rt_device.c.obj
 .debug_abbrev  0x00000000       0x4d CMakeFiles/hello_usb.dir/opt/pico-sdk/lib/tinyusb/src/class/dfu/dfu_rt_device.c.obj
 .debug_aranges
                0x00000000       0x18 CMakeFiles/hello_usb.dir/opt/pico-sdk/lib/tinyusb/src/class/dfu/dfu_rt_device.c.obj
 .debug_line    0x00000000       0xa5 CMakeFiles/hello_usb.dir/opt/pico-sdk/lib/tinyusb/src/class/dfu/dfu_rt_device.c.obj
 .debug_str     0x00000000      0x1b2 CMakeFiles/hello_usb.dir/opt/pico-sdk/lib/tinyusb/src/class/dfu/dfu_rt_device.c.obj
 .comment       0x00000000       0x58 CMakeFiles/hello_usb.dir/opt/pico-sdk/lib/tinyusb/src/class/dfu/dfu_rt_device.c.obj
 .ARM.attributes
                0x00000000       0x32 CMakeFiles/hello_usb.dir/opt/pico-sdk/lib/tinyusb/src/class/dfu/dfu_rt_device.c.obj
 .text          0x00000000        0x0 CMakeFiles/hello_usb.dir/opt/pico-sdk/lib/tinyusb/src/class/hid/hid_device.c.obj
 .data          0x00000000        0x0 CMakeFiles/hello_usb.dir/opt/pico-sdk/lib/tinyusb/src/class/hid/hid_device.c.obj
 .bss           0x00000000        0x0 CMakeFiles/hello_usb.dir/opt/pico-sdk/lib/tinyusb/src/class/hid/hid_device.c.obj
 .debug_info    0x00000000       0x86 CMakeFiles/hello_usb.dir/opt/pico-sdk/lib/tinyusb/src/class/hid/hid_device.c.obj
 .debug_abbrev  0x00000000       0x4d CMakeFiles/hello_usb.dir/opt/pico-sdk/lib/tinyusb/src/class/hid/hid_device.c.obj
 .debug_aranges
                0x00000000       0x18 CMakeFiles/hello_usb.dir/opt/pico-sdk/lib/tinyusb/src/class/hid/hid_device.c.obj
 .debug_line    0x00000000       0xa5 CMakeFiles/hello_usb.dir/opt/pico-sdk/lib/tinyusb/src/class/hid/hid_device.c.obj
 .debug_str     0x00000000      0x1af CMakeFiles/hello_usb.dir/opt/pico-sdk/lib/tinyusb/src/class/hid/hid_device.c.obj
 .comment       0x00000000       0x58 CMakeFiles/hello_usb.dir/opt/pico-sdk/lib/tinyusb/src/class/hid/hid_device.c.obj
 .ARM.attributes
                0x00000000       0x32 CMakeFiles/hello_usb.dir/opt/pico-sdk/lib/tinyusb/src/class/hid/hid_device.c.obj
 .text          0x00000000        0x0 CMakeFiles/hello_usb.dir/opt/pico-sdk/lib/tinyusb/src/class/midi/midi_device.c.obj
 .data          0x00000000        0x0 CMakeFiles/hello_usb.dir/opt/pico-sdk/lib/tinyusb/src/class/midi/midi_device.c.obj
 .bss           0x00000000        0x0 CMakeFiles/hello_usb.dir/opt/pico-sdk/lib/tinyusb/src/class/midi/midi_device.c.obj
 .debug_info    0x00000000       0x86 CMakeFiles/hello_usb.dir/opt/pico-sdk/lib/tinyusb/src/class/midi/midi_device.c.obj
 .debug_abbrev  0x00000000       0x4d CMakeFiles/hello_usb.dir/opt/pico-sdk/lib/tinyusb/src/class/midi/midi_device.c.obj
 .debug_aranges
                0x00000000       0x18 CMakeFiles/hello_usb.dir/opt/pico-sdk/lib/tinyusb/src/class/midi/midi_device.c.obj
 .debug_line    0x00000000       0xa5 CMakeFiles/hello_usb.dir/opt/pico-sdk/lib/tinyusb/src/class/midi/midi_device.c.obj
 .debug_str     0x00000000      0x1b1 CMakeFiles/hello_usb.dir/opt/pico-sdk/lib/tinyusb/src/class/midi/midi_device.c.obj
 .comment       0x00000000       0x58 CMakeFiles/hello_usb.dir/opt/pico-sdk/lib/tinyusb/src/class/midi/midi_device.c.obj
 .ARM.attributes
                0x00000000       0x32 CMakeFiles/hello_usb.dir/opt/pico-sdk/lib/tinyusb/src/class/midi/midi_device.c.obj
 .text          0x00000000        0x0 CMakeFiles/hello_usb.dir/opt/pico-sdk/lib/tinyusb/src/class/msc/msc_device.c.obj
 .data          0x00000000        0x0 CMakeFiles/hello_usb.dir/opt/pico-sdk/lib/tinyusb/src/class/msc/msc_device.c.obj
 .bss           0x00000000        0x0 CMakeFiles/hello_usb.dir/opt/pico-sdk/lib/tinyusb/src/class/msc/msc_device.c.obj
 .debug_info    0x00000000       0x86 CMakeFiles/hello_usb.dir/opt/pico-sdk/lib/tinyusb/src/class/msc/msc_device.c.obj
 .debug_abbrev  0x00000000       0x4d CMakeFiles/hello_usb.dir/opt/pico-sdk/lib/tinyusb/src/class/msc/msc_device.c.obj
 .debug_aranges
                0x00000000       0x18 CMakeFiles/hello_usb.dir/opt/pico-sdk/lib/tinyusb/src/class/msc/msc_device.c.obj
 .debug_line    0x00000000       0xa5 CMakeFiles/hello_usb.dir/opt/pico-sdk/lib/tinyusb/src/class/msc/msc_device.c.obj
 .debug_str     0x00000000      0x1af CMakeFiles/hello_usb.dir/opt/pico-sdk/lib/tinyusb/src/class/msc/msc_device.c.obj
 .comment       0x00000000       0x58 CMakeFiles/hello_usb.dir/opt/pico-sdk/lib/tinyusb/src/class/msc/msc_device.c.obj
 .ARM.attributes
                0x00000000       0x32 CMakeFiles/hello_usb.dir/opt/pico-sdk/lib/tinyusb/src/class/msc/msc_device.c.obj
 .text          0x00000000        0x0 CMakeFiles/hello_usb.dir/opt/pico-sdk/lib/tinyusb/src/class/net/net_device.c.obj
 .data          0x00000000        0x0 CMakeFiles/hello_usb.dir/opt/pico-sdk/lib/tinyusb/src/class/net/net_device.c.obj
 .bss           0x00000000        0x0 CMakeFiles/hello_usb.dir/opt/pico-sdk/lib/tinyusb/src/class/net/net_device.c.obj
 .debug_info    0x00000000       0x86 CMakeFiles/hello_usb.dir/opt/pico-sdk/lib/tinyusb/src/class/net/net_device.c.obj
 .debug_abbrev  0x00000000       0x4d CMakeFiles/hello_usb.dir/opt/pico-sdk/lib/tinyusb/src/class/net/net_device.c.obj
 .debug_aranges
                0x00000000       0x18 CMakeFiles/hello_usb.dir/opt/pico-sdk/lib/tinyusb/src/class/net/net_device.c.obj
 .debug_line    0x00000000       0xa5 CMakeFiles/hello_usb.dir/opt/pico-sdk/lib/tinyusb/src/class/net/net_device.c.obj
 .debug_str     0x00000000      0x1af CMakeFiles/hello_usb.dir/opt/pico-sdk/lib/tinyusb/src/class/net/net_device.c.obj
 .comment       0x00000000       0x58 CMakeFiles/hello_usb.dir/opt/pico-sdk/lib/tinyusb/src/class/net/net_device.c.obj
 .ARM.attributes
                0x00000000       0x32 CMakeFiles/hello_usb.dir/opt/pico-sdk/lib/tinyusb/src/class/net/net_device.c.obj
 .text          0x00000000        0x0 CMakeFiles/hello_usb.dir/opt/pico-sdk/lib/tinyusb/src/class/usbtmc/usbtmc_device.c.obj
 .data          0x00000000        0x0 CMakeFiles/hello_usb.dir/opt/pico-sdk/lib/tinyusb/src/class/usbtmc/usbtmc_device.c.obj
 .bss           0x00000000        0x0 CMakeFiles/hello_usb.dir/opt/pico-sdk/lib/tinyusb/src/class/usbtmc/usbtmc_device.c.obj
 .debug_info    0x00000000       0x86 CMakeFiles/hello_usb.dir/opt/pico-sdk/lib/tinyusb/src/class/usbtmc/usbtmc_device.c.obj
 .debug_abbrev  0x00000000       0x4d CMakeFiles/hello_usb.dir/opt/pico-sdk/lib/tinyusb/src/class/usbtmc/usbtmc_device.c.obj
 .debug_aranges
                0x00000000       0x18 CMakeFiles/hello_usb.dir/opt/pico-sdk/lib/tinyusb/src/class/usbtmc/usbtmc_device.c.obj
 .debug_line    0x00000000       0xa5 CMakeFiles/hello_usb.dir/opt/pico-sdk/lib/tinyusb/src/class/usbtmc/usbtmc_device.c.obj
 .debug_str     0x00000000      0x1b5 CMakeFiles/hello_usb.dir/opt/pico-sdk/lib/tinyusb/src/class/usbtmc/usbtmc_device.c.obj
 .comment       0x00000000       0x58 CMakeFiles/hello_usb.dir/opt/pico-sdk/lib/tinyusb/src/class/usbtmc/usbtmc_device.c.obj
 .ARM.attributes
                0x00000000       0x32 CMakeFiles/hello_usb.dir/opt/pico-sdk/lib/tinyusb/src/class/usbtmc/usbtmc_device.c.obj
 .text          0x00000000        0x0 CMakeFiles/hello_usb.dir/opt/pico-sdk/lib/tinyusb/src/class/vendor/vendor_device.c.obj
 .data          0x00000000        0x0 CMakeFiles/hello_usb.dir/opt/pico-sdk/lib/tinyusb/src/class/vendor/vendor_device.c.obj
 .bss           0x00000000        0x0 CMakeFiles/hello_usb.dir/opt/pico-sdk/lib/tinyusb/src/class/vendor/vendor_device.c.obj
 .debug_info    0x00000000       0x86 CMakeFiles/hello_usb.dir/opt/pico-sdk/lib/tinyusb/src/class/vendor/vendor_device.c.obj
 .debug_abbrev  0x00000000       0x4d CMakeFiles/hello_usb.dir/opt/pico-sdk/lib/tinyusb/src/class/vendor/vendor_device.c.obj
 .debug_aranges
                0x00000000       0x18 CMakeFiles/hello_usb.dir/opt/pico-sdk/lib/tinyusb/src/class/vendor/vendor_device.c.obj
 .debug_line    0x00000000       0xa5 CMakeFiles/hello_usb.dir/opt/pico-sdk/lib/tinyusb/src/class/vendor/vendor_device.c.obj
 .debug_str     0x00000000      0x1b5 CMakeFiles/hello_usb.dir/opt/pico-sdk/lib/tinyusb/src/class/vendor/vendor_device.c.obj
 .comment       0x00000000       0x58 CMakeFiles/hello_usb.dir/opt/pico-sdk/lib/tinyusb/src/class/vendor/vendor_device.c.obj
 .ARM.attributes
                0x00000000       0x32 CMakeFiles/hello_usb.dir/opt/pico-sdk/lib/tinyusb/src/class/vendor/vendor_device.c.obj
 .text          0x00000000        0x0 CMakeFiles/hello_usb.dir/opt/pico-sdk/lib/tinyusb/src/tusb.c.obj
 .data          0x00000000        0x0 CMakeFiles/hello_usb.dir/opt/pico-sdk/lib/tinyusb/src/tusb.c.obj
 .bss           0x00000000        0x0 CMakeFiles/hello_usb.dir/opt/pico-sdk/lib/tinyusb/src/tusb.c.obj
 .text.dump_str_line
                0x00000000       0x40 CMakeFiles/hello_usb.dir/opt/pico-sdk/lib/tinyusb/src/tusb.c.obj
 .text.tu_print_mem
                0x00000000       0xd8 CMakeFiles/hello_usb.dir/opt/pico-sdk/lib/tinyusb/src/tusb.c.obj
 .rodata.dump_str_line.str1.4
                0x00000000        0x7 CMakeFiles/hello_usb.dir/opt/pico-sdk/lib/tinyusb/src/tusb.c.obj
 .rodata.str1.4
                0x00000000      0x132 CMakeFiles/hello_usb.dir/opt/pico-sdk/lib/tinyusb/src/tusb.c.obj
 .rodata.tu_print_mem.str1.4
                0x00000000       0x15 CMakeFiles/hello_usb.dir/opt/pico-sdk/lib/tinyusb/src/tusb.c.obj
 .rodata.tusb_strerr
                0x00000000       0x2c CMakeFiles/hello_usb.dir/opt/pico-sdk/lib/tinyusb/src/tusb.c.obj
 .text          0x00000000        0x0 CMakeFiles/hello_usb.dir/opt/pico-sdk/lib/tinyusb/src/common/tusb_fifo.c.obj
 .data          0x00000000        0x0 CMakeFiles/hello_usb.dir/opt/pico-sdk/lib/tinyusb/src/common/tusb_fifo.c.obj
 .bss           0x00000000        0x0 CMakeFiles/hello_usb.dir/opt/pico-sdk/lib/tinyusb/src/common/tusb_fifo.c.obj
 .text.tu_fifo_full
                0x00000000       0x22 CMakeFiles/hello_usb.dir/opt/pico-sdk/lib/tinyusb/src/common/tusb_fifo.c.obj
 .text.tu_fifo_overflowed
                0x00000000       0x20 CMakeFiles/hello_usb.dir/opt/pico-sdk/lib/tinyusb/src/common/tusb_fifo.c.obj
 .text.tu_fifo_correct_read_pointer
                0x00000000       0x2c CMakeFiles/hello_usb.dir/opt/pico-sdk/lib/tinyusb/src/common/tusb_fifo.c.obj
 .text.tu_fifo_read_n_const_addr_full_words
                0x00000000        0xa CMakeFiles/hello_usb.dir/opt/pico-sdk/lib/tinyusb/src/common/tusb_fifo.c.obj
 .text.tu_fifo_peek
                0x00000000       0x34 CMakeFiles/hello_usb.dir/opt/pico-sdk/lib/tinyusb/src/common/tusb_fifo.c.obj
 .text.tu_fifo_peek_n
                0x00000000       0x44 CMakeFiles/hello_usb.dir/opt/pico-sdk/lib/tinyusb/src/common/tusb_fifo.c.obj
 .text.tu_fifo_write_n_const_addr_full_words
                0x00000000        0xa CMakeFiles/hello_usb.dir/opt/pico-sdk/lib/tinyusb/src/common/tusb_fifo.c.obj
 .text.tu_fifo_advance_write_pointer
                0x00000000       0x12 CMakeFiles/hello_usb.dir/opt/pico-sdk/lib/tinyusb/src/common/tusb_fifo.c.obj
 .text.tu_fifo_advance_read_pointer
                0x00000000       0x12 CMakeFiles/hello_usb.dir/opt/pico-sdk/lib/tinyusb/src/common/tusb_fifo.c.obj
 .text.tu_fifo_get_read_info
                0x00000000       0xa2 CMakeFiles/hello_usb.dir/opt/pico-sdk/lib/tinyusb/src/common/tusb_fifo.c.obj
 .text.tu_fifo_get_write_info
                0x00000000       0x7a CMakeFiles/hello_usb.dir/opt/pico-sdk/lib/tinyusb/src/common/tusb_fifo.c.obj
 .text          0x00000000        0x0 CMakeFiles/hello_usb.dir/opt/pico-sdk/src/rp2_common/pico_fix/rp2040_usb_device_enumeration/rp2040_usb_device_enumeration.c.obj
 .data          0x00000000        0x0 CMakeFiles/hello_usb.dir/opt/pico-sdk/src/rp2_common/pico_fix/rp2040_usb_device_enumeration/rp2040_usb_device_enumeration.c.obj
 .bss           0x00000000        0x0 CMakeFiles/hello_usb.dir/opt/pico-sdk/src/rp2_common/pico_fix/rp2040_usb_device_enumeration/rp2040_usb_device_enumeration.c.obj
 .text.hw_enumeration_fix_finish
                0x00000000       0x40 CMakeFiles/hello_usb.dir/opt/pico-sdk/src/rp2_common/pico_fix/rp2040_usb_device_enumeration/rp2040_usb_device_enumeration.c.obj
 .text.hw_enumeration_fix_force_ls_j_done
                0x00000000        0xc CMakeFiles/hello_usb.dir/opt/pico-sdk/src/rp2_common/pico_fix/rp2040_usb_device_enumeration/rp2040_usb_device_enumeration.c.obj
 .text.hw_enumeration_fix_force_ls_j
                0x00000000      0x128 CMakeFiles/hello_usb.dir/opt/pico-sdk/src/rp2_common/pico_fix/rp2040_usb_device_enumeration/rp2040_usb_device_enumeration.c.obj
 .text.hw_enumeration_fix_wait_se0_callback
                0x00000000       0x24 CMakeFiles/hello_usb.dir/opt/pico-sdk/src/rp2_common/pico_fix/rp2040_usb_device_enumeration/rp2040_usb_device_enumeration.c.obj
 .text.hw_enumeration_fix_wait_se0
                0x00000000       0x88 CMakeFiles/hello_usb.dir/opt/pico-sdk/src/rp2_common/pico_fix/rp2040_usb_device_enumeration/rp2040_usb_device_enumeration.c.obj
 .text.rp2040_usb_device_enumeration_fix
                0x00000000        0x8 CMakeFiles/hello_usb.dir/opt/pico-sdk/src/rp2_common/pico_fix/rp2040_usb_device_enumeration/rp2040_usb_device_enumeration.c.obj
 .bss.gpio_ctrl_prev
                0x00000000        0x4 CMakeFiles/hello_usb.dir/opt/pico-sdk/src/rp2_common/pico_fix/rp2040_usb_device_enumeration/rp2040_usb_device_enumeration.c.obj
 .bss.pad_ctrl_prev
                0x00000000        0x4 CMakeFiles/hello_usb.dir/opt/pico-sdk/src/rp2_common/pico_fix/rp2040_usb_device_enumeration/rp2040_usb_device_enumeration.c.obj
 .rodata.__func__.4173
                0x00000000       0x15 CMakeFiles/hello_usb.dir/opt/pico-sdk/src/rp2_common/pico_fix/rp2040_usb_device_enumeration/rp2040_usb_device_enumeration.c.obj
 .rodata.__func__.4764
                0x00000000       0x1e CMakeFiles/hello_usb.dir/opt/pico-sdk/src/rp2_common/pico_fix/rp2040_usb_device_enumeration/rp2040_usb_device_enumeration.c.obj
 .rodata.hw_enumeration_fix_force_ls_j.str1.4
                0x00000000       0xf4 CMakeFiles/hello_usb.dir/opt/pico-sdk/src/rp2_common/pico_fix/rp2040_usb_device_enumeration/rp2040_usb_device_enumeration.c.obj
 .debug_info    0x00000000      0xc7b CMakeFiles/hello_usb.dir/opt/pico-sdk/src/rp2_common/pico_fix/rp2040_usb_device_enumeration/rp2040_usb_device_enumeration.c.obj
 .debug_abbrev  0x00000000      0x33a CMakeFiles/hello_usb.dir/opt/pico-sdk/src/rp2_common/pico_fix/rp2040_usb_device_enumeration/rp2040_usb_device_enumeration.c.obj
 .debug_loc     0x00000000      0x4e3 CMakeFiles/hello_usb.dir/opt/pico-sdk/src/rp2_common/pico_fix/rp2040_usb_device_enumeration/rp2040_usb_device_enumeration.c.obj
 .debug_aranges
                0x00000000       0x48 CMakeFiles/hello_usb.dir/opt/pico-sdk/src/rp2_common/pico_fix/rp2040_usb_device_enumeration/rp2040_usb_device_enumeration.c.obj
 .debug_ranges  0x00000000      0x158 CMakeFiles/hello_usb.dir/opt/pico-sdk/src/rp2_common/pico_fix/rp2040_usb_device_enumeration/rp2040_usb_device_enumeration.c.obj
 .debug_line    0x00000000      0x3fa CMakeFiles/hello_usb.dir/opt/pico-sdk/src/rp2_common/pico_fix/rp2040_usb_device_enumeration/rp2040_usb_device_enumeration.c.obj
 .debug_str     0x00000000      0x75a CMakeFiles/hello_usb.dir/opt/pico-sdk/src/rp2_common/pico_fix/rp2040_usb_device_enumeration/rp2040_usb_device_enumeration.c.obj
 .comment       0x00000000       0x58 CMakeFiles/hello_usb.dir/opt/pico-sdk/src/rp2_common/pico_fix/rp2040_usb_device_enumeration/rp2040_usb_device_enumeration.c.obj
 .debug_frame   0x00000000       0xa8 CMakeFiles/hello_usb.dir/opt/pico-sdk/src/rp2_common/pico_fix/rp2040_usb_device_enumeration/rp2040_usb_device_enumeration.c.obj
 .ARM.attributes
                0x00000000       0x32 CMakeFiles/hello_usb.dir/opt/pico-sdk/src/rp2_common/pico_fix/rp2040_usb_device_enumeration/rp2040_usb_device_enumeration.c.obj
 .text          0x00000000        0x0 CMakeFiles/hello_usb.dir/opt/pico-sdk/src/rp2_common/pico_unique_id/unique_id.c.obj
 .data          0x00000000        0x0 CMakeFiles/hello_usb.dir/opt/pico-sdk/src/rp2_common/pico_unique_id/unique_id.c.obj
 .bss           0x00000000        0x0 CMakeFiles/hello_usb.dir/opt/pico-sdk/src/rp2_common/pico_unique_id/unique_id.c.obj
 .text.pico_get_unique_board_id
                0x00000000       0x10 CMakeFiles/hello_usb.dir/opt/pico-sdk/src/rp2_common/pico_unique_id/unique_id.c.obj
 .text          0x00000000        0x0 CMakeFiles/hello_usb.dir/opt/pico-sdk/src/rp2_common/hardware_flash/flash.c.obj
 .data          0x00000000        0x0 CMakeFiles/hello_usb.dir/opt/pico-sdk/src/rp2_common/hardware_flash/flash.c.obj
 .bss           0x00000000        0x0 CMakeFiles/hello_usb.dir/opt/pico-sdk/src/rp2_common/hardware_flash/flash.c.obj
 .time_critical.flash_range_erase
                0x00000000       0xa0 CMakeFiles/hello_usb.dir/opt/pico-sdk/src/rp2_common/hardware_flash/flash.c.obj
 .time_critical.flash_range_program
                0x00000000       0x9c CMakeFiles/hello_usb.dir/opt/pico-sdk/src/rp2_common/hardware_flash/flash.c.obj
 .rodata.__func__.4329
                0x00000000       0x12 CMakeFiles/hello_usb.dir/opt/pico-sdk/src/rp2_common/hardware_flash/flash.c.obj
 .rodata.__func__.4353
                0x00000000       0x14 CMakeFiles/hello_usb.dir/opt/pico-sdk/src/rp2_common/hardware_flash/flash.c.obj
 .text          0x00000000        0x0 /tmp/cc0cJ7pH.o
 .data          0x00000000        0x0 /tmp/cc0cJ7pH.o
 .bss           0x00000000        0x0 /tmp/cc0cJ7pH.o
 .data          0x00000000        0x0 /usr/lib/gcc/arm-none-eabi/7.3.1/thumb/v6-m/libgcc.a(_dvmd_tls.o)
 .bss           0x00000000        0x0 /usr/lib/gcc/arm-none-eabi/7.3.1/thumb/v6-m/libgcc.a(_dvmd_tls.o)
 .text          0x00000000       0x10 /usr/lib/gcc/arm-none-eabi/7.3.1/../../../arm-none-eabi/lib/thumb/v6-m/libg.a(lib_a-atexit.o)
 .data          0x00000000        0x0 /usr/lib/gcc/arm-none-eabi/7.3.1/../../../arm-none-eabi/lib/thumb/v6-m/libg.a(lib_a-atexit.o)
 .bss           0x00000000        0x0 /usr/lib/gcc/arm-none-eabi/7.3.1/../../../arm-none-eabi/lib/thumb/v6-m/libg.a(lib_a-atexit.o)
 .debug_info    0x00000000      0x90c /usr/lib/gcc/arm-none-eabi/7.3.1/../../../arm-none-eabi/lib/thumb/v6-m/libg.a(lib_a-atexit.o)
 .debug_abbrev  0x00000000      0x1fe /usr/lib/gcc/arm-none-eabi/7.3.1/../../../arm-none-eabi/lib/thumb/v6-m/libg.a(lib_a-atexit.o)
 .debug_loc     0x00000000       0x2c /usr/lib/gcc/arm-none-eabi/7.3.1/../../../arm-none-eabi/lib/thumb/v6-m/libg.a(lib_a-atexit.o)
 .debug_aranges
                0x00000000       0x20 /usr/lib/gcc/arm-none-eabi/7.3.1/../../../arm-none-eabi/lib/thumb/v6-m/libg.a(lib_a-atexit.o)
 .debug_line    0x00000000      0x129 /usr/lib/gcc/arm-none-eabi/7.3.1/../../../arm-none-eabi/lib/thumb/v6-m/libg.a(lib_a-atexit.o)
 .debug_str     0x00000000      0x5cf /usr/lib/gcc/arm-none-eabi/7.3.1/../../../arm-none-eabi/lib/thumb/v6-m/libg.a(lib_a-atexit.o)
 .comment       0x00000000       0x58 /usr/lib/gcc/arm-none-eabi/7.3.1/../../../arm-none-eabi/lib/thumb/v6-m/libg.a(lib_a-atexit.o)
 .debug_frame   0x00000000       0x28 /usr/lib/gcc/arm-none-eabi/7.3.1/../../../arm-none-eabi/lib/thumb/v6-m/libg.a(lib_a-atexit.o)
 .ARM.attributes
                0x00000000       0x2c /usr/lib/gcc/arm-none-eabi/7.3.1/../../../arm-none-eabi/lib/thumb/v6-m/libg.a(lib_a-atexit.o)
 .text          0x00000000       0x18 /usr/lib/gcc/arm-none-eabi/7.3.1/../../../arm-none-eabi/lib/thumb/v6-m/libg.a(lib_a-calloc.o)
 .data          0x00000000        0x0 /usr/lib/gcc/arm-none-eabi/7.3.1/../../../arm-none-eabi/lib/thumb/v6-m/libg.a(lib_a-calloc.o)
 .bss           0x00000000        0x0 /usr/lib/gcc/arm-none-eabi/7.3.1/../../../arm-none-eabi/lib/thumb/v6-m/libg.a(lib_a-calloc.o)
 .debug_info    0x00000000      0x8fa /usr/lib/gcc/arm-none-eabi/7.3.1/../../../arm-none-eabi/lib/thumb/v6-m/libg.a(lib_a-calloc.o)
 .debug_abbrev  0x00000000      0x1f1 /usr/lib/gcc/arm-none-eabi/7.3.1/../../../arm-none-eabi/lib/thumb/v6-m/libg.a(lib_a-calloc.o)
 .debug_loc     0x00000000       0x58 /usr/lib/gcc/arm-none-eabi/7.3.1/../../../arm-none-eabi/lib/thumb/v6-m/libg.a(lib_a-calloc.o)
 .debug_aranges
                0x00000000       0x20 /usr/lib/gcc/arm-none-eabi/7.3.1/../../../arm-none-eabi/lib/thumb/v6-m/libg.a(lib_a-calloc.o)
 .debug_line    0x00000000      0x11e /usr/lib/gcc/arm-none-eabi/7.3.1/../../../arm-none-eabi/lib/thumb/v6-m/libg.a(lib_a-calloc.o)
 .debug_str     0x00000000      0x5a1 /usr/lib/gcc/arm-none-eabi/7.3.1/../../../arm-none-eabi/lib/thumb/v6-m/libg.a(lib_a-calloc.o)
 .comment       0x00000000       0x58 /usr/lib/gcc/arm-none-eabi/7.3.1/../../../arm-none-eabi/lib/thumb/v6-m/libg.a(lib_a-calloc.o)
 .debug_frame   0x00000000       0x28 /usr/lib/gcc/arm-none-eabi/7.3.1/../../../arm-none-eabi/lib/thumb/v6-m/libg.a(lib_a-calloc.o)
 .ARM.attributes
                0x00000000       0x2c /usr/lib/gcc/arm-none-eabi/7.3.1/../../../arm-none-eabi/lib/thumb/v6-m/libg.a(lib_a-calloc.o)
 .text          0x00000000       0x58 /usr/lib/gcc/arm-none-eabi/7.3.1/../../../arm-none-eabi/lib/thumb/v6-m/libg.a(lib_a-callocr.o)
 .data          0x00000000        0x0 /usr/lib/gcc/arm-none-eabi/7.3.1/../../../arm-none-eabi/lib/thumb/v6-m/libg.a(lib_a-callocr.o)
 .bss           0x00000000        0x0 /usr/lib/gcc/arm-none-eabi/7.3.1/../../../arm-none-eabi/lib/thumb/v6-m/libg.a(lib_a-callocr.o)
 .debug_info    0x00000000      0xb5d /usr/lib/gcc/arm-none-eabi/7.3.1/../../../arm-none-eabi/lib/thumb/v6-m/libg.a(lib_a-callocr.o)
 .debug_abbrev  0x00000000      0x235 /usr/lib/gcc/arm-none-eabi/7.3.1/../../../arm-none-eabi/lib/thumb/v6-m/libg.a(lib_a-callocr.o)
 .debug_loc     0x00000000      0x226 /usr/lib/gcc/arm-none-eabi/7.3.1/../../../arm-none-eabi/lib/thumb/v6-m/libg.a(lib_a-callocr.o)
 .debug_aranges
                0x00000000       0x20 /usr/lib/gcc/arm-none-eabi/7.3.1/../../../arm-none-eabi/lib/thumb/v6-m/libg.a(lib_a-callocr.o)
 .debug_ranges  0x00000000       0x30 /usr/lib/gcc/arm-none-eabi/7.3.1/../../../arm-none-eabi/lib/thumb/v6-m/libg.a(lib_a-callocr.o)
 .debug_line    0x00000000      0x12b /usr/lib/gcc/arm-none-eabi/7.3.1/../../../arm-none-eabi/lib/thumb/v6-m/libg.a(lib_a-callocr.o)
 .debug_str     0x00000000      0x710 /usr/lib/gcc/arm-none-eabi/7.3.1/../../../arm-none-eabi/lib/thumb/v6-m/libg.a(lib_a-callocr.o)
 .comment       0x00000000       0x58 /usr/lib/gcc/arm-none-eabi/7.3.1/../../../arm-none-eabi/lib/thumb/v6-m/libg.a(lib_a-callocr.o)
 .debug_frame   0x00000000       0x28 /usr/lib/gcc/arm-none-eabi/7.3.1/../../../arm-none-eabi/lib/thumb/v6-m/libg.a(lib_a-callocr.o)
 .ARM.attributes
                0x00000000       0x2c /usr/lib/gcc/arm-none-eabi/7.3.1/../../../arm-none-eabi/lib/thumb/v6-m/libg.a(lib_a-callocr.o)
 .text          0x00000000        0x0 /usr/lib/gcc/arm-none-eabi/7.3.1/../../../arm-none-eabi/lib/thumb/v6-m/libg.a(lib_a-ctype_.o)
 .data          0x00000000        0x0 /usr/lib/gcc/arm-none-eabi/7.3.1/../../../arm-none-eabi/lib/thumb/v6-m/libg.a(lib_a-ctype_.o)
 .bss           0x00000000        0x0 /usr/lib/gcc/arm-none-eabi/7.3.1/../../../arm-none-eabi/lib/thumb/v6-m/libg.a(lib_a-ctype_.o)
 .rodata        0x00000000      0x101 /usr/lib/gcc/arm-none-eabi/7.3.1/../../../arm-none-eabi/lib/thumb/v6-m/libg.a(lib_a-ctype_.o)
 .debug_info    0x00000000      0xdb6 /usr/lib/gcc/arm-none-eabi/7.3.1/../../../arm-none-eabi/lib/thumb/v6-m/libg.a(lib_a-ctype_.o)
 .debug_abbrev  0x00000000      0x190 /usr/lib/gcc/arm-none-eabi/7.3.1/../../../arm-none-eabi/lib/thumb/v6-m/libg.a(lib_a-ctype_.o)
 .debug_aranges
                0x00000000       0x18 /usr/lib/gcc/arm-none-eabi/7.3.1/../../../arm-none-eabi/lib/thumb/v6-m/libg.a(lib_a-ctype_.o)
 .debug_line    0x00000000      0x139 /usr/lib/gcc/arm-none-eabi/7.3.1/../../../arm-none-eabi/lib/thumb/v6-m/libg.a(lib_a-ctype_.o)
 .debug_str     0x00000000      0x89c /usr/lib/gcc/arm-none-eabi/7.3.1/../../../arm-none-eabi/lib/thumb/v6-m/libg.a(lib_a-ctype_.o)
 .comment       0x00000000       0x58 /usr/lib/gcc/arm-none-eabi/7.3.1/../../../arm-none-eabi/lib/thumb/v6-m/libg.a(lib_a-ctype_.o)
 .ARM.attributes
                0x00000000       0x2c /usr/lib/gcc/arm-none-eabi/7.3.1/../../../arm-none-eabi/lib/thumb/v6-m/libg.a(lib_a-ctype_.o)
 .text          0x00000000       0x34 /usr/lib/gcc/arm-none-eabi/7.3.1/../../../arm-none-eabi/lib/thumb/v6-m/libg.a(lib_a-fini.o)
 .data          0x00000000        0x0 /usr/lib/gcc/arm-none-eabi/7.3.1/../../../arm-none-eabi/lib/thumb/v6-m/libg.a(lib_a-fini.o)
 .bss           0x00000000        0x0 /usr/lib/gcc/arm-none-eabi/7.3.1/../../../arm-none-eabi/lib/thumb/v6-m/libg.a(lib_a-fini.o)
 .debug_info    0x00000000       0xf3 /usr/lib/gcc/arm-none-eabi/7.3.1/../../../arm-none-eabi/lib/thumb/v6-m/libg.a(lib_a-fini.o)
 .debug_abbrev  0x00000000       0xba /usr/lib/gcc/arm-none-eabi/7.3.1/../../../arm-none-eabi/lib/thumb/v6-m/libg.a(lib_a-fini.o)
 .debug_loc     0x00000000       0x3e /usr/lib/gcc/arm-none-eabi/7.3.1/../../../arm-none-eabi/lib/thumb/v6-m/libg.a(lib_a-fini.o)
 .debug_aranges
                0x00000000       0x20 /usr/lib/gcc/arm-none-eabi/7.3.1/../../../arm-none-eabi/lib/thumb/v6-m/libg.a(lib_a-fini.o)
 .debug_line    0x00000000       0x9f /usr/lib/gcc/arm-none-eabi/7.3.1/../../../arm-none-eabi/lib/thumb/v6-m/libg.a(lib_a-fini.o)
 .debug_str     0x00000000      0x1de /usr/lib/gcc/arm-none-eabi/7.3.1/../../../arm-none-eabi/lib/thumb/v6-m/libg.a(lib_a-fini.o)
 .comment       0x00000000       0x58 /usr/lib/gcc/arm-none-eabi/7.3.1/../../../arm-none-eabi/lib/thumb/v6-m/libg.a(lib_a-fini.o)
 .debug_frame   0x00000000       0x2c /usr/lib/gcc/arm-none-eabi/7.3.1/../../../arm-none-eabi/lib/thumb/v6-m/libg.a(lib_a-fini.o)
 .ARM.attributes
                0x00000000       0x2c /usr/lib/gcc/arm-none-eabi/7.3.1/../../../arm-none-eabi/lib/thumb/v6-m/libg.a(lib_a-fini.o)
 .text          0x00000000        0x0 /usr/lib/gcc/arm-none-eabi/7.3.1/../../../arm-none-eabi/lib/thumb/v6-m/libg.a(lib_a-impure.o)
 .data          0x00000000      0x430 /usr/lib/gcc/arm-none-eabi/7.3.1/../../../arm-none-eabi/lib/thumb/v6-m/libg.a(lib_a-impure.o)
 .bss           0x00000000        0x0 /usr/lib/gcc/arm-none-eabi/7.3.1/../../../arm-none-eabi/lib/thumb/v6-m/libg.a(lib_a-impure.o)
 .rodata        0x00000000        0x4 /usr/lib/gcc/arm-none-eabi/7.3.1/../../../arm-none-eabi/lib/thumb/v6-m/libg.a(lib_a-impure.o)
 .debug_info    0x00000000      0x8a9 /usr/lib/gcc/arm-none-eabi/7.3.1/../../../arm-none-eabi/lib/thumb/v6-m/libg.a(lib_a-impure.o)
 .debug_abbrev  0x00000000      0x192 /usr/lib/gcc/arm-none-eabi/7.3.1/../../../arm-none-eabi/lib/thumb/v6-m/libg.a(lib_a-impure.o)
 .debug_aranges
                0x00000000       0x18 /usr/lib/gcc/arm-none-eabi/7.3.1/../../../arm-none-eabi/lib/thumb/v6-m/libg.a(lib_a-impure.o)
 .debug_line    0x00000000       0xd4 /usr/lib/gcc/arm-none-eabi/7.3.1/../../../arm-none-eabi/lib/thumb/v6-m/libg.a(lib_a-impure.o)
 .debug_str     0x00000000      0x584 /usr/lib/gcc/arm-none-eabi/7.3.1/../../../arm-none-eabi/lib/thumb/v6-m/libg.a(lib_a-impure.o)
 .comment       0x00000000       0x58 /usr/lib/gcc/arm-none-eabi/7.3.1/../../../arm-none-eabi/lib/thumb/v6-m/libg.a(lib_a-impure.o)
 .ARM.attributes
                0x00000000       0x2c /usr/lib/gcc/arm-none-eabi/7.3.1/../../../arm-none-eabi/lib/thumb/v6-m/libg.a(lib_a-impure.o)
 .text          0x00000000       0x48 /usr/lib/gcc/arm-none-eabi/7.3.1/../../../arm-none-eabi/lib/thumb/v6-m/libg.a(lib_a-init.o)
 .data          0x00000000        0x0 /usr/lib/gcc/arm-none-eabi/7.3.1/../../../arm-none-eabi/lib/thumb/v6-m/libg.a(lib_a-init.o)
 .bss           0x00000000        0x0 /usr/lib/gcc/arm-none-eabi/7.3.1/../../../arm-none-eabi/lib/thumb/v6-m/libg.a(lib_a-init.o)
 .debug_info    0x00000000      0x109 /usr/lib/gcc/arm-none-eabi/7.3.1/../../../arm-none-eabi/lib/thumb/v6-m/libg.a(lib_a-init.o)
 .debug_abbrev  0x00000000       0xba /usr/lib/gcc/arm-none-eabi/7.3.1/../../../arm-none-eabi/lib/thumb/v6-m/libg.a(lib_a-init.o)
 .debug_loc     0x00000000       0x84 /usr/lib/gcc/arm-none-eabi/7.3.1/../../../arm-none-eabi/lib/thumb/v6-m/libg.a(lib_a-init.o)
 .debug_aranges
                0x00000000       0x20 /usr/lib/gcc/arm-none-eabi/7.3.1/../../../arm-none-eabi/lib/thumb/v6-m/libg.a(lib_a-init.o)
 .debug_line    0x00000000       0xbf /usr/lib/gcc/arm-none-eabi/7.3.1/../../../arm-none-eabi/lib/thumb/v6-m/libg.a(lib_a-init.o)
 .debug_str     0x00000000      0x208 /usr/lib/gcc/arm-none-eabi/7.3.1/../../../arm-none-eabi/lib/thumb/v6-m/libg.a(lib_a-init.o)
 .comment       0x00000000       0x58 /usr/lib/gcc/arm-none-eabi/7.3.1/../../../arm-none-eabi/lib/thumb/v6-m/libg.a(lib_a-init.o)
 .debug_frame   0x00000000       0x2c /usr/lib/gcc/arm-none-eabi/7.3.1/../../../arm-none-eabi/lib/thumb/v6-m/libg.a(lib_a-init.o)
 .ARM.attributes
                0x00000000       0x2c /usr/lib/gcc/arm-none-eabi/7.3.1/../../../arm-none-eabi/lib/thumb/v6-m/libg.a(lib_a-init.o)
 .text          0x00000000       0x28 /usr/lib/gcc/arm-none-eabi/7.3.1/../../../arm-none-eabi/lib/thumb/v6-m/libg.a(lib_a-malloc.o)
 .data          0x00000000        0x0 /usr/lib/gcc/arm-none-eabi/7.3.1/../../../arm-none-eabi/lib/thumb/v6-m/libg.a(lib_a-malloc.o)
 .bss           0x00000000        0x0 /usr/lib/gcc/arm-none-eabi/7.3.1/../../../arm-none-eabi/lib/thumb/v6-m/libg.a(lib_a-malloc.o)
 .debug_info    0x00000000      0x926 /usr/lib/gcc/arm-none-eabi/7.3.1/../../../arm-none-eabi/lib/thumb/v6-m/libg.a(lib_a-malloc.o)
 .debug_abbrev  0x00000000      0x1fc /usr/lib/gcc/arm-none-eabi/7.3.1/../../../arm-none-eabi/lib/thumb/v6-m/libg.a(lib_a-malloc.o)
 .debug_loc     0x00000000       0x58 /usr/lib/gcc/arm-none-eabi/7.3.1/../../../arm-none-eabi/lib/thumb/v6-m/libg.a(lib_a-malloc.o)
 .debug_aranges
                0x00000000       0x20 /usr/lib/gcc/arm-none-eabi/7.3.1/../../../arm-none-eabi/lib/thumb/v6-m/libg.a(lib_a-malloc.o)
 .debug_line    0x00000000      0x130 /usr/lib/gcc/arm-none-eabi/7.3.1/../../../arm-none-eabi/lib/thumb/v6-m/libg.a(lib_a-malloc.o)
 .debug_str     0x00000000      0x5b5 /usr/lib/gcc/arm-none-eabi/7.3.1/../../../arm-none-eabi/lib/thumb/v6-m/libg.a(lib_a-malloc.o)
 .comment       0x00000000       0x58 /usr/lib/gcc/arm-none-eabi/7.3.1/../../../arm-none-eabi/lib/thumb/v6-m/libg.a(lib_a-malloc.o)
 .debug_frame   0x00000000       0x40 /usr/lib/gcc/arm-none-eabi/7.3.1/../../../arm-none-eabi/lib/thumb/v6-m/libg.a(lib_a-malloc.o)
 .ARM.attributes
                0x00000000       0x2c /usr/lib/gcc/arm-none-eabi/7.3.1/../../../arm-none-eabi/lib/thumb/v6-m/libg.a(lib_a-malloc.o)
 .text          0x00000000      0x570 /usr/lib/gcc/arm-none-eabi/7.3.1/../../../arm-none-eabi/lib/thumb/v6-m/libg.a(lib_a-mallocr.o)
 .data          0x00000000      0x410 /usr/lib/gcc/arm-none-eabi/7.3.1/../../../arm-none-eabi/lib/thumb/v6-m/libg.a(lib_a-mallocr.o)
 .bss           0x00000000       0x34 /usr/lib/gcc/arm-none-eabi/7.3.1/../../../arm-none-eabi/lib/thumb/v6-m/libg.a(lib_a-mallocr.o)
 .debug_info    0x00000000      0xde7 /usr/lib/gcc/arm-none-eabi/7.3.1/../../../arm-none-eabi/lib/thumb/v6-m/libg.a(lib_a-mallocr.o)
 .debug_abbrev  0x00000000      0x2cd /usr/lib/gcc/arm-none-eabi/7.3.1/../../../arm-none-eabi/lib/thumb/v6-m/libg.a(lib_a-mallocr.o)
 .debug_loc     0x00000000      0xdce /usr/lib/gcc/arm-none-eabi/7.3.1/../../../arm-none-eabi/lib/thumb/v6-m/libg.a(lib_a-mallocr.o)
 .debug_aranges
                0x00000000       0x20 /usr/lib/gcc/arm-none-eabi/7.3.1/../../../arm-none-eabi/lib/thumb/v6-m/libg.a(lib_a-mallocr.o)
 .debug_ranges  0x00000000       0x40 /usr/lib/gcc/arm-none-eabi/7.3.1/../../../arm-none-eabi/lib/thumb/v6-m/libg.a(lib_a-mallocr.o)
 .debug_line    0x00000000      0x36d /usr/lib/gcc/arm-none-eabi/7.3.1/../../../arm-none-eabi/lib/thumb/v6-m/libg.a(lib_a-mallocr.o)
 .debug_str     0x00000000      0x7ec /usr/lib/gcc/arm-none-eabi/7.3.1/../../../arm-none-eabi/lib/thumb/v6-m/libg.a(lib_a-mallocr.o)
 .comment       0x00000000       0x58 /usr/lib/gcc/arm-none-eabi/7.3.1/../../../arm-none-eabi/lib/thumb/v6-m/libg.a(lib_a-mallocr.o)
 .debug_frame   0x00000000       0x3c /usr/lib/gcc/arm-none-eabi/7.3.1/../../../arm-none-eabi/lib/thumb/v6-m/libg.a(lib_a-mallocr.o)
 .ARM.attributes
                0x00000000       0x2c /usr/lib/gcc/arm-none-eabi/7.3.1/../../../arm-none-eabi/lib/thumb/v6-m/libg.a(lib_a-mallocr.o)
 .text          0x00000000        0x8 /usr/lib/gcc/arm-none-eabi/7.3.1/../../../arm-none-eabi/lib/thumb/v6-m/libg.a(lib_a-mlock.o)
 .data          0x00000000        0x0 /usr/lib/gcc/arm-none-eabi/7.3.1/../../../arm-none-eabi/lib/thumb/v6-m/libg.a(lib_a-mlock.o)
 .bss           0x00000000        0x0 /usr/lib/gcc/arm-none-eabi/7.3.1/../../../arm-none-eabi/lib/thumb/v6-m/libg.a(lib_a-mlock.o)
 .debug_info    0x00000000      0x8dc /usr/lib/gcc/arm-none-eabi/7.3.1/../../../arm-none-eabi/lib/thumb/v6-m/libg.a(lib_a-mlock.o)
 .debug_abbrev  0x00000000      0x1d7 /usr/lib/gcc/arm-none-eabi/7.3.1/../../../arm-none-eabi/lib/thumb/v6-m/libg.a(lib_a-mlock.o)
 .debug_aranges
                0x00000000       0x20 /usr/lib/gcc/arm-none-eabi/7.3.1/../../../arm-none-eabi/lib/thumb/v6-m/libg.a(lib_a-mlock.o)
 .debug_line    0x00000000      0x11a /usr/lib/gcc/arm-none-eabi/7.3.1/../../../arm-none-eabi/lib/thumb/v6-m/libg.a(lib_a-mlock.o)
 .debug_str     0x00000000      0x5b0 /usr/lib/gcc/arm-none-eabi/7.3.1/../../../arm-none-eabi/lib/thumb/v6-m/libg.a(lib_a-mlock.o)
 .comment       0x00000000       0x58 /usr/lib/gcc/arm-none-eabi/7.3.1/../../../arm-none-eabi/lib/thumb/v6-m/libg.a(lib_a-mlock.o)
 .debug_frame   0x00000000       0x30 /usr/lib/gcc/arm-none-eabi/7.3.1/../../../arm-none-eabi/lib/thumb/v6-m/libg.a(lib_a-mlock.o)
 .ARM.attributes
                0x00000000       0x2c /usr/lib/gcc/arm-none-eabi/7.3.1/../../../arm-none-eabi/lib/thumb/v6-m/libg.a(lib_a-mlock.o)
 .text          0x00000000       0x24 /usr/lib/gcc/arm-none-eabi/7.3.1/../../../arm-none-eabi/lib/thumb/v6-m/libg.a(lib_a-sbrkr.o)
 .data          0x00000000        0x0 /usr/lib/gcc/arm-none-eabi/7.3.1/../../../arm-none-eabi/lib/thumb/v6-m/libg.a(lib_a-sbrkr.o)
 .bss           0x00000000        0x0 /usr/lib/gcc/arm-none-eabi/7.3.1/../../../arm-none-eabi/lib/thumb/v6-m/libg.a(lib_a-sbrkr.o)
 .debug_info    0x00000000      0x95f /usr/lib/gcc/arm-none-eabi/7.3.1/../../../arm-none-eabi/lib/thumb/v6-m/libg.a(lib_a-sbrkr.o)
 .debug_abbrev  0x00000000      0x215 /usr/lib/gcc/arm-none-eabi/7.3.1/../../../arm-none-eabi/lib/thumb/v6-m/libg.a(lib_a-sbrkr.o)
 .debug_loc     0x00000000       0x58 /usr/lib/gcc/arm-none-eabi/7.3.1/../../../arm-none-eabi/lib/thumb/v6-m/libg.a(lib_a-sbrkr.o)
 .debug_aranges
                0x00000000       0x20 /usr/lib/gcc/arm-none-eabi/7.3.1/../../../arm-none-eabi/lib/thumb/v6-m/libg.a(lib_a-sbrkr.o)
 .debug_line    0x00000000      0x132 /usr/lib/gcc/arm-none-eabi/7.3.1/../../../arm-none-eabi/lib/thumb/v6-m/libg.a(lib_a-sbrkr.o)
 .debug_str     0x00000000      0x5c7 /usr/lib/gcc/arm-none-eabi/7.3.1/../../../arm-none-eabi/lib/thumb/v6-m/libg.a(lib_a-sbrkr.o)
 .comment       0x00000000       0x58 /usr/lib/gcc/arm-none-eabi/7.3.1/../../../arm-none-eabi/lib/thumb/v6-m/libg.a(lib_a-sbrkr.o)
 .debug_frame   0x00000000       0x2c /usr/lib/gcc/arm-none-eabi/7.3.1/../../../arm-none-eabi/lib/thumb/v6-m/libg.a(lib_a-sbrkr.o)
 .ARM.attributes
                0x00000000       0x2c /usr/lib/gcc/arm-none-eabi/7.3.1/../../../arm-none-eabi/lib/thumb/v6-m/libg.a(lib_a-sbrkr.o)
 .data          0x00000000        0x0 /usr/lib/gcc/arm-none-eabi/7.3.1/../../../arm-none-eabi/lib/thumb/v6-m/libg.a(lib_a-strlen-stub.o)
 .bss           0x00000000        0x0 /usr/lib/gcc/arm-none-eabi/7.3.1/../../../arm-none-eabi/lib/thumb/v6-m/libg.a(lib_a-strlen-stub.o)
 .text          0x00000000       0x88 /usr/lib/gcc/arm-none-eabi/7.3.1/../../../arm-none-eabi/lib/thumb/v6-m/libg.a(lib_a-__atexit.o)
 .data          0x00000000        0x0 /usr/lib/gcc/arm-none-eabi/7.3.1/../../../arm-none-eabi/lib/thumb/v6-m/libg.a(lib_a-__atexit.o)
 .bss           0x00000000        0x0 /usr/lib/gcc/arm-none-eabi/7.3.1/../../../arm-none-eabi/lib/thumb/v6-m/libg.a(lib_a-__atexit.o)
 .debug_info    0x00000000      0x937 /usr/lib/gcc/arm-none-eabi/7.3.1/../../../arm-none-eabi/lib/thumb/v6-m/libg.a(lib_a-__atexit.o)
 .debug_abbrev  0x00000000      0x212 /usr/lib/gcc/arm-none-eabi/7.3.1/../../../arm-none-eabi/lib/thumb/v6-m/libg.a(lib_a-__atexit.o)
 .debug_loc     0x00000000      0x138 /usr/lib/gcc/arm-none-eabi/7.3.1/../../../arm-none-eabi/lib/thumb/v6-m/libg.a(lib_a-__atexit.o)
 .debug_aranges
                0x00000000       0x20 /usr/lib/gcc/arm-none-eabi/7.3.1/../../../arm-none-eabi/lib/thumb/v6-m/libg.a(lib_a-__atexit.o)
 .debug_line    0x00000000      0x148 /usr/lib/gcc/arm-none-eabi/7.3.1/../../../arm-none-eabi/lib/thumb/v6-m/libg.a(lib_a-__atexit.o)
 .debug_str     0x00000000      0x5ed /usr/lib/gcc/arm-none-eabi/7.3.1/../../../arm-none-eabi/lib/thumb/v6-m/libg.a(lib_a-__atexit.o)
 .comment       0x00000000       0x58 /usr/lib/gcc/arm-none-eabi/7.3.1/../../../arm-none-eabi/lib/thumb/v6-m/libg.a(lib_a-__atexit.o)
 .debug_frame   0x00000000       0x38 /usr/lib/gcc/arm-none-eabi/7.3.1/../../../arm-none-eabi/lib/thumb/v6-m/libg.a(lib_a-__atexit.o)
 .ARM.attributes
                0x00000000       0x2c /usr/lib/gcc/arm-none-eabi/7.3.1/../../../arm-none-eabi/lib/thumb/v6-m/libg.a(lib_a-__atexit.o)
 .text          0x00000000      0x274 /usr/lib/gcc/arm-none-eabi/7.3.1/../../../arm-none-eabi/lib/thumb/v6-m/libg.a(lib_a-freer.o)
 .data          0x00000000        0x0 /usr/lib/gcc/arm-none-eabi/7.3.1/../../../arm-none-eabi/lib/thumb/v6-m/libg.a(lib_a-freer.o)
 .bss           0x00000000        0x0 /usr/lib/gcc/arm-none-eabi/7.3.1/../../../arm-none-eabi/lib/thumb/v6-m/libg.a(lib_a-freer.o)
 .debug_info    0x00000000      0xc97 /usr/lib/gcc/arm-none-eabi/7.3.1/../../../arm-none-eabi/lib/thumb/v6-m/libg.a(lib_a-freer.o)
 .debug_abbrev  0x00000000      0x273 /usr/lib/gcc/arm-none-eabi/7.3.1/../../../arm-none-eabi/lib/thumb/v6-m/libg.a(lib_a-freer.o)
 .debug_loc     0x00000000      0x46c /usr/lib/gcc/arm-none-eabi/7.3.1/../../../arm-none-eabi/lib/thumb/v6-m/libg.a(lib_a-freer.o)
 .debug_aranges
                0x00000000       0x20 /usr/lib/gcc/arm-none-eabi/7.3.1/../../../arm-none-eabi/lib/thumb/v6-m/libg.a(lib_a-freer.o)
 .debug_line    0x00000000      0x200 /usr/lib/gcc/arm-none-eabi/7.3.1/../../../arm-none-eabi/lib/thumb/v6-m/libg.a(lib_a-freer.o)
 .debug_str     0x00000000      0x765 /usr/lib/gcc/arm-none-eabi/7.3.1/../../../arm-none-eabi/lib/thumb/v6-m/libg.a(lib_a-freer.o)
 .comment       0x00000000       0x58 /usr/lib/gcc/arm-none-eabi/7.3.1/../../../arm-none-eabi/lib/thumb/v6-m/libg.a(lib_a-freer.o)
 .debug_frame   0x00000000       0x58 /usr/lib/gcc/arm-none-eabi/7.3.1/../../../arm-none-eabi/lib/thumb/v6-m/libg.a(lib_a-freer.o)
 .ARM.attributes
                0x00000000       0x2c /usr/lib/gcc/arm-none-eabi/7.3.1/../../../arm-none-eabi/lib/thumb/v6-m/libg.a(lib_a-freer.o)
 .text          0x00000000       0xb0 /usr/lib/gcc/arm-none-eabi/7.3.1/../../../arm-none-eabi/lib/thumb/v6-m/libg.a(lib_a-reent.o)
 .data          0x00000000        0x0 /usr/lib/gcc/arm-none-eabi/7.3.1/../../../arm-none-eabi/lib/thumb/v6-m/libg.a(lib_a-reent.o)
 .bss           0x00000000        0x0 /usr/lib/gcc/arm-none-eabi/7.3.1/../../../arm-none-eabi/lib/thumb/v6-m/libg.a(lib_a-reent.o)
 .debug_info    0x00000000      0xa12 /usr/lib/gcc/arm-none-eabi/7.3.1/../../../arm-none-eabi/lib/thumb/v6-m/libg.a(lib_a-reent.o)
 .debug_abbrev  0x00000000      0x273 /usr/lib/gcc/arm-none-eabi/7.3.1/../../../arm-none-eabi/lib/thumb/v6-m/libg.a(lib_a-reent.o)
 .debug_loc     0x00000000      0x112 /usr/lib/gcc/arm-none-eabi/7.3.1/../../../arm-none-eabi/lib/thumb/v6-m/libg.a(lib_a-reent.o)
 .debug_aranges
                0x00000000       0x20 /usr/lib/gcc/arm-none-eabi/7.3.1/../../../arm-none-eabi/lib/thumb/v6-m/libg.a(lib_a-reent.o)
 .debug_line    0x00000000      0x14b /usr/lib/gcc/arm-none-eabi/7.3.1/../../../arm-none-eabi/lib/thumb/v6-m/libg.a(lib_a-reent.o)
 .debug_str     0x00000000      0x5c0 /usr/lib/gcc/arm-none-eabi/7.3.1/../../../arm-none-eabi/lib/thumb/v6-m/libg.a(lib_a-reent.o)
 .comment       0x00000000       0x58 /usr/lib/gcc/arm-none-eabi/7.3.1/../../../arm-none-eabi/lib/thumb/v6-m/libg.a(lib_a-reent.o)
 .debug_frame   0x00000000       0x48 /usr/lib/gcc/arm-none-eabi/7.3.1/../../../arm-none-eabi/lib/thumb/v6-m/libg.a(lib_a-reent.o)
 .ARM.attributes
                0x00000000       0x2c /usr/lib/gcc/arm-none-eabi/7.3.1/../../../arm-none-eabi/lib/thumb/v6-m/libg.a(lib_a-reent.o)
 COMMON         0x00000000        0x4 /usr/lib/gcc/arm-none-eabi/7.3.1/../../../arm-none-eabi/lib/thumb/v6-m/libg.a(lib_a-reent.o)
 .text          0x00000000        0x0 /usr/lib/gcc/arm-none-eabi/7.3.1/thumb/v6-m/crtend.o
 .data          0x00000000        0x0 /usr/lib/gcc/arm-none-eabi/7.3.1/thumb/v6-m/crtend.o
 .bss           0x00000000        0x0 /usr/lib/gcc/arm-none-eabi/7.3.1/thumb/v6-m/crtend.o
 .eh_frame      0x00000000        0x4 /usr/lib/gcc/arm-none-eabi/7.3.1/thumb/v6-m/crtend.o
 .text          0x00000000        0x0 /usr/lib/gcc/arm-none-eabi/7.3.1/thumb/v6-m/crtn.o
 .data          0x00000000        0x0 /usr/lib/gcc/arm-none-eabi/7.3.1/thumb/v6-m/crtn.o
 .bss           0x00000000        0x0 /usr/lib/gcc/arm-none-eabi/7.3.1/thumb/v6-m/crtn.o
 .init          0x00000000        0x8 /usr/lib/gcc/arm-none-eabi/7.3.1/thumb/v6-m/crtn.o
 .fini          0x00000000        0x8 /usr/lib/gcc/arm-none-eabi/7.3.1/thumb/v6-m/crtn.o
 .ARM.attributes
                0x00000000       0x1e /usr/lib/gcc/arm-none-eabi/7.3.1/thumb/v6-m/crtn.o

Memory Configuration

Name             Origin             Length             Attributes
FLASH            0x10000000         0x00200000         xr
RAM              0x20000000         0x00040000         xrw
SCRATCH_X        0x20040000         0x00001000         xrw
SCRATCH_Y        0x20041000         0x00001000         xrw
*default*        0x00000000         0xffffffff

Linker script and memory map

LOAD /usr/lib/gcc/arm-none-eabi/7.3.1/thumb/v6-m/crti.o
LOAD /usr/lib/gcc/arm-none-eabi/7.3.1/thumb/v6-m/crtbegin.o
LOAD /usr/lib/gcc/arm-none-eabi/7.3.1/../../../arm-none-eabi/lib/thumb/v6-m/crt0.o

.flash_begin    0x10000000        0x0
                0x10000000                __flash_binary_start = .

.boot2          0x10000000      0x100
                0x10000000                __boot2_start__ = .
 *(.boot2)
 .boot2         0x10000000      0x100 /tmp/cc0cJ7pH.o
                0x10000100                __boot2_end__ = .
                0x00000001                ASSERT (((__boot2_end__ - __boot2_start__) == 0x100), ERROR: Pico second stage bootloader must be 256 bytes in size)

.text           0x10000100     0x6eb0
                0x10000100                __logical_binary_start = .
 *(.vectors)
 .vectors       0x10000100       0xd4 CMakeFiles/hello_usb.dir/opt/pico-sdk/src/rp2_common/pico_standard_link/crt0.S.obj
                0x10000100                __vectors
                0x10000100                __VECTOR_TABLE
                0x100001c0                isr_invalid
                0x100001c0                __default_isrs_start
                0x100001c2                isr_nmi
                0x100001c4                isr_hardfault
                0x100001c6                isr_svcall
                0x100001c8                isr_pendsv
                0x100001ca                isr_systick
                0x100001cc                isr_irq30
                0x100001cc                __unhandled_user_irq
                0x100001cc                isr_irq13
                0x100001cc                isr_irq27
                0x100001cc                isr_irq31
                0x100001cc                isr_irq5
                0x100001cc                isr_irq11
                0x100001cc                isr_irq23
                0x100001cc                isr_irq18
                0x100001cc                isr_irq28
                0x100001cc                isr_irq19
                0x100001cc                isr_irq0
                0x100001cc                isr_irq6
                0x100001cc                isr_irq22
                0x100001cc                isr_irq17
                0x100001cc                isr_irq14
                0x100001cc                isr_irq2
                0x100001cc                isr_irq10
                0x100001cc                isr_irq8
                0x100001cc                isr_irq24
                0x100001cc                isr_irq1
                0x100001cc                isr_irq7
                0x100001cc                isr_irq21
                0x100001cc                isr_irq20
                0x100001cc                isr_irq15
                0x100001cc                isr_irq25
                0x100001cc                isr_irq4
                0x100001cc                isr_irq16
                0x100001cc                isr_irq29
                0x100001cc                isr_irq26
                0x100001cc                __default_isrs_end
                0x100001cc                isr_irq3
                0x100001cc                isr_irq12
                0x100001cc                isr_irq9
                0x100001d2                unhandled_user_irq_num_in_r0
 *(.binary_info_header)
 .binary_info_header
                0x100001d4       0x14 CMakeFiles/hello_usb.dir/opt/pico-sdk/src/rp2_common/pico_standard_link/crt0.S.obj
                0x100001e8                __binary_info_header_end = .
 *(.reset)
 .reset         0x100001e8       0xa8 CMakeFiles/hello_usb.dir/opt/pico-sdk/src/rp2_common/pico_standard_link/crt0.S.obj
                0x100001e8                _entry_point
                0x10000266                __get_current_exception
 .reset         0x10000290       0x30 CMakeFiles/hello_usb.dir/opt/pico-sdk/src/rp2_common/pico_standard_link/binary_info.c.obj
 *(.init)
 .init          0x100002c0        0x4 /usr/lib/gcc/arm-none-eabi/7.3.1/thumb/v6-m/crti.o
                0x100002c0                _init
 *(EXCLUDE_FILE(*libm.a: *libc.a:*lib_a-mem*.o *libgcc.a:) .text*)
 .text          0x100002c4       0x98 /usr/lib/gcc/arm-none-eabi/7.3.1/thumb/v6-m/crtbegin.o
 .text.main     0x1000035c       0x1c CMakeFiles/hello_usb.dir/hello_usb.c.obj
                0x1000035c                main
 .text.hw_claim_lock
                0x10000378       0x18 CMakeFiles/hello_usb.dir/opt/pico-sdk/src/rp2_common/hardware_claim/claim.c.obj
                0x10000378                hw_claim_lock
 .text.hw_claim_unlock
                0x10000390       0x14 CMakeFiles/hello_usb.dir/opt/pico-sdk/src/rp2_common/hardware_claim/claim.c.obj
                0x10000390                hw_claim_unlock
 .text.hw_claim_or_assert
                0x100003a4       0x32 CMakeFiles/hello_usb.dir/opt/pico-sdk/src/rp2_common/hardware_claim/claim.c.obj
                0x100003a4                hw_claim_or_assert
 .text.hw_claim_unused_from_range
                0x100003d6       0x50 CMakeFiles/hello_usb.dir/opt/pico-sdk/src/rp2_common/hardware_claim/claim.c.obj
                0x100003d6                hw_claim_unused_from_range
 *fill*         0x10000426        0x2 
 .text.running_on_fpga
                0x10000428       0x14 CMakeFiles/hello_usb.dir/opt/pico-sdk/src/rp2_common/pico_platform/platform.c.obj
                0x10000428                running_on_fpga
 .text.spin_locks_reset
                0x1000043c       0x20 CMakeFiles/hello_usb.dir/opt/pico-sdk/src/rp2_common/hardware_sync/sync.c.obj
                0x1000043c                spin_locks_reset
 .text.next_striped_spin_lock_num
                0x1000045c       0x1c CMakeFiles/hello_usb.dir/opt/pico-sdk/src/rp2_common/hardware_sync/sync.c.obj
                0x1000045c                next_striped_spin_lock_num
 .text.spin_lock_claim_unused
                0x10000478       0x20 CMakeFiles/hello_usb.dir/opt/pico-sdk/src/rp2_common/hardware_sync/sync.c.obj
                0x10000478                spin_lock_claim_unused
 .text.alarm_pool_post_alloc_init
                0x10000498       0x40 CMakeFiles/hello_usb.dir/opt/pico-sdk/src/common/pico_time/time.c.obj
 .text.sleep_until_callback
                0x100004d8       0x30 CMakeFiles/hello_usb.dir/opt/pico-sdk/src/common/pico_time/time.c.obj
 .text.timer_pool_entry_comparator
                0x10000508       0x7c CMakeFiles/hello_usb.dir/opt/pico-sdk/src/common/pico_time/time.c.obj
                0x10000508                timer_pool_entry_comparator
 .text.ph_add_child_node
                0x10000584       0xa4 CMakeFiles/hello_usb.dir/opt/pico-sdk/src/common/pico_time/time.c.obj
 .text.ph_merge_nodes
                0x10000628       0x3a CMakeFiles/hello_usb.dir/opt/pico-sdk/src/common/pico_time/time.c.obj
 *fill*         0x10000662        0x2 
 .text.add_alarm_under_lock
                0x10000664      0x180 CMakeFiles/hello_usb.dir/opt/pico-sdk/src/common/pico_time/time.c.obj
 .text.alarm_pool_alarm_callback
                0x100007e4      0x344 CMakeFiles/hello_usb.dir/opt/pico-sdk/src/common/pico_time/time.c.obj
 .text.alarm_pool_init_default
                0x10000b28       0x38 CMakeFiles/hello_usb.dir/opt/pico-sdk/src/common/pico_time/time.c.obj
                0x10000b28                alarm_pool_init_default
 .text.alarm_pool_get_default
                0x10000b60       0x2c CMakeFiles/hello_usb.dir/opt/pico-sdk/src/common/pico_time/time.c.obj
                0x10000b60                alarm_pool_get_default
 .text.alarm_pool_add_alarm_at
                0x10000b8c      0x168 CMakeFiles/hello_usb.dir/opt/pico-sdk/src/common/pico_time/time.c.obj
                0x10000b8c                alarm_pool_add_alarm_at
 .text.alarm_pool_cancel_alarm
                0x10000cf4       0xec CMakeFiles/hello_usb.dir/opt/pico-sdk/src/common/pico_time/time.c.obj
                0x10000cf4                alarm_pool_cancel_alarm
 .text.sleep_until
                0x10000de0       0xfc CMakeFiles/hello_usb.dir/opt/pico-sdk/src/common/pico_time/time.c.obj
                0x10000de0                sleep_until
 .text.sleep_us
                0x10000edc       0x54 CMakeFiles/hello_usb.dir/opt/pico-sdk/src/common/pico_time/time.c.obj
                0x10000edc                sleep_us
 .text.sleep_ms
                0x10000f30       0x14 CMakeFiles/hello_usb.dir/opt/pico-sdk/src/common/pico_time/time.c.obj
                0x10000f30                sleep_ms
 .text.best_effort_wfe_or_timeout
                0x10000f44       0x80 CMakeFiles/hello_usb.dir/opt/pico-sdk/src/common/pico_time/time.c.obj
                0x10000f44                best_effort_wfe_or_timeout
 .text.hardware_alarm_irq_handler
                0x10000fc4       0x8c CMakeFiles/hello_usb.dir/opt/pico-sdk/src/rp2_common/hardware_timer/timer.c.obj
 .text.hardware_alarm_claim
                0x10001050       0x18 CMakeFiles/hello_usb.dir/opt/pico-sdk/src/rp2_common/hardware_timer/timer.c.obj
                0x10001050                hardware_alarm_claim
 .text.time_us_64
                0x10001068       0x18 CMakeFiles/hello_usb.dir/opt/pico-sdk/src/rp2_common/hardware_timer/timer.c.obj
                0x10001068                time_us_64
 .text.busy_wait_until
                0x10001080       0x28 CMakeFiles/hello_usb.dir/opt/pico-sdk/src/rp2_common/hardware_timer/timer.c.obj
                0x10001080                busy_wait_until
 .text.hardware_alarm_set_callback
                0x100010a8       0x90 CMakeFiles/hello_usb.dir/opt/pico-sdk/src/rp2_common/hardware_timer/timer.c.obj
                0x100010a8                hardware_alarm_set_callback
 .text.hardware_alarm_set_target
                0x10001138       0xe8 CMakeFiles/hello_usb.dir/opt/pico-sdk/src/rp2_common/hardware_timer/timer.c.obj
                0x10001138                hardware_alarm_set_target
 .text.hardware_alarm_cancel
                0x10001220       0x40 CMakeFiles/hello_usb.dir/opt/pico-sdk/src/rp2_common/hardware_timer/timer.c.obj
                0x10001220                hardware_alarm_cancel
 .text.lock_init
                0x10001260       0x10 CMakeFiles/hello_usb.dir/opt/pico-sdk/src/common/pico_sync/lock_core.c.obj
                0x10001260                lock_init
 .text.mutex_init_internal
                0x10001270       0x1e CMakeFiles/hello_usb.dir/opt/pico-sdk/src/common/pico_sync/mutex.c.obj
 .text.mutex_init
                0x1000128e        0xa CMakeFiles/hello_usb.dir/opt/pico-sdk/src/common/pico_sync/mutex.c.obj
                0x1000128e                mutex_init
 .text.recursive_mutex_init
                0x10001298        0xa CMakeFiles/hello_usb.dir/opt/pico-sdk/src/common/pico_sync/mutex.c.obj
                0x10001298                recursive_mutex_init
 *fill*         0x100012a2        0x2 
 .text.critical_section_init_with_lock_num
                0x100012a4       0x14 CMakeFiles/hello_usb.dir/opt/pico-sdk/src/common/pico_sync/critical_section.c.obj
                0x100012a4                critical_section_init_with_lock_num
 .text.critical_section_init
                0x100012b8       0x14 CMakeFiles/hello_usb.dir/opt/pico-sdk/src/common/pico_sync/critical_section.c.obj
                0x100012b8                critical_section_init
 .text.ph_add_child_node
                0x100012cc       0xa4 CMakeFiles/hello_usb.dir/opt/pico-sdk/src/common/pico_util/pheap.c.obj
 .text.ph_merge_nodes
                0x10001370       0x3a CMakeFiles/hello_usb.dir/opt/pico-sdk/src/common/pico_util/pheap.c.obj
 *fill*         0x100013aa        0x2 
 .text.ph_clear
                0x100013ac       0x70 CMakeFiles/hello_usb.dir/opt/pico-sdk/src/common/pico_util/pheap.c.obj
                0x100013ac                ph_clear
 .text.ph_post_alloc_init
                0x1000141c        0xe CMakeFiles/hello_usb.dir/opt/pico-sdk/src/common/pico_util/pheap.c.obj
                0x1000141c                ph_post_alloc_init
 *fill*         0x1000142a        0x2 
 .text.ph_merge_two_pass
                0x1000142c       0xac CMakeFiles/hello_usb.dir/opt/pico-sdk/src/common/pico_util/pheap.c.obj
                0x1000142c                ph_merge_two_pass
 .text.ph_remove_any_head
                0x100014d8      0x108 CMakeFiles/hello_usb.dir/opt/pico-sdk/src/common/pico_util/pheap.c.obj
 .text.ph_remove_head
                0x100015e0       0x14 CMakeFiles/hello_usb.dir/opt/pico-sdk/src/common/pico_util/pheap.c.obj
                0x100015e0                ph_remove_head
 .text.ph_remove_and_free_node
                0x100015f4       0xf8 CMakeFiles/hello_usb.dir/opt/pico-sdk/src/common/pico_util/pheap.c.obj
                0x100015f4                ph_remove_and_free_node
 .text.runtime_init
                0x100016ec       0xd8 CMakeFiles/hello_usb.dir/opt/pico-sdk/src/rp2_common/pico_runtime/runtime.c.obj
                0x100016ec                runtime_init
 .text._exit    0x100017c4        0x4 CMakeFiles/hello_usb.dir/opt/pico-sdk/src/rp2_common/pico_runtime/runtime.c.obj
                0x100017c4                _exit
 .text.exit     0x100017c8        0x6 CMakeFiles/hello_usb.dir/opt/pico-sdk/src/rp2_common/pico_runtime/runtime.c.obj
                0x100017c8                exit
 *fill*         0x100017ce        0x2 
 .text.__assert_func
                0x100017d0       0x3c CMakeFiles/hello_usb.dir/opt/pico-sdk/src/rp2_common/pico_runtime/runtime.c.obj
                0x100017d0                __assert_func
 .text.panic    0x1000180c       0x30 CMakeFiles/hello_usb.dir/opt/pico-sdk/src/rp2_common/pico_runtime/runtime.c.obj
                0x1000180c                panic
 .text.clock_configure
                0x1000183c       0xfc CMakeFiles/hello_usb.dir/opt/pico-sdk/src/rp2_common/hardware_clocks/clocks.c.obj
                0x1000183c                clock_configure
 .text.clocks_init
                0x10001938      0x100 CMakeFiles/hello_usb.dir/opt/pico-sdk/src/rp2_common/hardware_clocks/clocks.c.obj
                0x10001938                clocks_init
 .text.set_raw_irq_handler_and_unlock
                0x10001a38       0x28 CMakeFiles/hello_usb.dir/opt/pico-sdk/src/rp2_common/hardware_irq/irq.c.obj
 .text.make_branch
                0x10001a60       0x34 CMakeFiles/hello_usb.dir/opt/pico-sdk/src/rp2_common/hardware_irq/irq.c.obj
 .text.insert_branch_and_link
                0x10001a94       0x40 CMakeFiles/hello_usb.dir/opt/pico-sdk/src/rp2_common/hardware_irq/irq.c.obj
 .text.irq_is_enabled
                0x10001ad4       0x18 CMakeFiles/hello_usb.dir/opt/pico-sdk/src/rp2_common/hardware_irq/irq.c.obj
                0x10001ad4                irq_is_enabled
 .text.irq_set_mask_enabled
                0x10001aec       0x20 CMakeFiles/hello_usb.dir/opt/pico-sdk/src/rp2_common/hardware_irq/irq.c.obj
                0x10001aec                irq_set_mask_enabled
 .text.irq_set_enabled
                0x10001b0c        0xe CMakeFiles/hello_usb.dir/opt/pico-sdk/src/rp2_common/hardware_irq/irq.c.obj
                0x10001b0c                irq_set_enabled
 *fill*         0x10001b1a        0x2 
 .text.irq_set_pending
                0x10001b1c       0x10 CMakeFiles/hello_usb.dir/opt/pico-sdk/src/rp2_common/hardware_irq/irq.c.obj
                0x10001b1c                irq_set_pending
 .text.irq_get_vtable_handler
                0x10001b2c       0x10 CMakeFiles/hello_usb.dir/opt/pico-sdk/src/rp2_common/hardware_irq/irq.c.obj
                0x10001b2c                irq_get_vtable_handler
 .text.irq_set_exclusive_handler
                0x10001b3c       0x54 CMakeFiles/hello_usb.dir/opt/pico-sdk/src/rp2_common/hardware_irq/irq.c.obj
                0x10001b3c                irq_set_exclusive_handler
 .text.irq_remove_handler
                0x10001b90      0x1b4 CMakeFiles/hello_usb.dir/opt/pico-sdk/src/rp2_common/hardware_irq/irq.c.obj
                0x10001b90                irq_remove_handler
 .text.irq_set_priority
                0x10001d44       0x28 CMakeFiles/hello_usb.dir/opt/pico-sdk/src/rp2_common/hardware_irq/irq.c.obj
                0x10001d44                irq_set_priority
 .text.irq_add_tail_to_free_list
                0x10001d6c       0xf0 CMakeFiles/hello_usb.dir/opt/pico-sdk/src/rp2_common/hardware_irq/irq.c.obj
                0x10001d6c                irq_add_tail_to_free_list
 .text.irq_init_priorities
                0x10001e5c       0x16 CMakeFiles/hello_usb.dir/opt/pico-sdk/src/rp2_common/hardware_irq/irq.c.obj
                0x10001e5c                irq_init_priorities
 *fill*         0x10001e72        0x2 
 .text.pll_init
                0x10001e74      0x118 CMakeFiles/hello_usb.dir/opt/pico-sdk/src/rp2_common/hardware_pll/pll.c.obj
                0x10001e74                pll_init
 .text.watchdog_start_tick
                0x10001f8c       0x10 CMakeFiles/hello_usb.dir/opt/pico-sdk/src/rp2_common/hardware_watchdog/watchdog.c.obj
                0x10001f8c                watchdog_start_tick
 .text.watchdog_update
                0x10001f9c       0x14 CMakeFiles/hello_usb.dir/opt/pico-sdk/src/rp2_common/hardware_watchdog/watchdog.c.obj
                0x10001f9c                watchdog_update
 .text._watchdog_enable
                0x10001fb0       0x6c CMakeFiles/hello_usb.dir/opt/pico-sdk/src/rp2_common/hardware_watchdog/watchdog.c.obj
                0x10001fb0                _watchdog_enable
 .text.watchdog_reboot
                0x1000201c       0x44 CMakeFiles/hello_usb.dir/opt/pico-sdk/src/rp2_common/hardware_watchdog/watchdog.c.obj
                0x1000201c                watchdog_reboot
 .text.xosc_init
                0x10002060       0x28 CMakeFiles/hello_usb.dir/opt/pico-sdk/src/rp2_common/hardware_xosc/xosc.c.obj
                0x10002060                xosc_init
 .text._out_null
                0x10002088        0x2 CMakeFiles/hello_usb.dir/opt/pico-sdk/src/rp2_common/pico_printf/printf.c.obj
 .text._out_fct
                0x1000208a        0xe CMakeFiles/hello_usb.dir/opt/pico-sdk/src/rp2_common/pico_printf/printf.c.obj
 .text._atoi    0x10002098       0x24 CMakeFiles/hello_usb.dir/opt/pico-sdk/src/rp2_common/pico_printf/printf.c.obj
 .text._out_rev
                0x100020bc       0x8c CMakeFiles/hello_usb.dir/opt/pico-sdk/src/rp2_common/pico_printf/printf.c.obj
 .text._ntoa_format
                0x10002148      0x112 CMakeFiles/hello_usb.dir/opt/pico-sdk/src/rp2_common/pico_printf/printf.c.obj
 .text._ntoa_long
                0x1000225a       0x9e CMakeFiles/hello_usb.dir/opt/pico-sdk/src/rp2_common/pico_printf/printf.c.obj
 .text._ntoa_long_long
                0x100022f8       0xe2 CMakeFiles/hello_usb.dir/opt/pico-sdk/src/rp2_common/pico_printf/printf.c.obj
 *fill*         0x100023da        0x2 
 .text._etoa    0x100023dc      0x424 CMakeFiles/hello_usb.dir/opt/pico-sdk/src/rp2_common/pico_printf/printf.c.obj
 .text._ftoa    0x10002800      0x340 CMakeFiles/hello_usb.dir/opt/pico-sdk/src/rp2_common/pico_printf/printf.c.obj
 .text._vsnprintf
                0x10002b40      0x640 CMakeFiles/hello_usb.dir/opt/pico-sdk/src/rp2_common/pico_printf/printf.c.obj
 .text.vfctprintf
                0x10003180       0x20 CMakeFiles/hello_usb.dir/opt/pico-sdk/src/rp2_common/pico_printf/printf.c.obj
                0x10003180                vfctprintf
 .text          0x100031a0       0x10 CMakeFiles/hello_usb.dir/opt/pico-sdk/src/rp2_common/pico_bit_ops/bit_ops_aeabi.S.obj
 .text.rom_func_lookup
                0x100031b0       0x10 CMakeFiles/hello_usb.dir/opt/pico-sdk/src/rp2_common/pico_bootrom/bootrom.c.obj
                0x100031b0                rom_func_lookup
 .text.rom_data_lookup
                0x100031c0       0x10 CMakeFiles/hello_usb.dir/opt/pico-sdk/src/rp2_common/pico_bootrom/bootrom.c.obj
                0x100031c0                rom_data_lookup
 .text.rom_funcs_lookup
                0x100031d0       0x36 CMakeFiles/hello_usb.dir/opt/pico-sdk/src/rp2_common/pico_bootrom/bootrom.c.obj
                0x100031d0                rom_funcs_lookup
 *fill*         0x10003206        0x2 
 .text.__wrap___aeabi_idiv
                0x10003208       0x50 CMakeFiles/hello_usb.dir/opt/pico-sdk/src/rp2_common/pico_divider/divider.S.obj
                0x10003208                __wrap___aeabi_idivmod
                0x10003208                divmod_s32s32
                0x10003208                div_s32s32
                0x10003208                __wrap___aeabi_idiv
                0x10003210                divmod_s32s32_unsafe
                0x1000323c                divmod_s32s32_savestate
 .text.__wrap___aeabi_uidiv
                0x10003258       0x4c CMakeFiles/hello_usb.dir/opt/pico-sdk/src/rp2_common/pico_divider/divider.S.obj
                0x10003258                __wrap___aeabi_uidiv
                0x10003258                __wrap___aeabi_uidivmod
                0x10003258                div_u32u32
                0x10003258                divmod_u32u32
                0x10003260                divmod_u32u32_unsafe
                0x10003288                divmod_u32u32_savestate
 .text.__wrap___aeabi_ldiv
                0x100032a4      0x430 CMakeFiles/hello_usb.dir/opt/pico-sdk/src/rp2_common/pico_divider/divider.S.obj
                0x100032a4                div_s64s64
                0x100032a4                divmod_s64s64
                0x100032a4                __wrap___aeabi_ldivmod
                0x100032dc                div_u64u64
                0x100032dc                divmod_u64u64
                0x100032dc                __wrap___aeabi_uldivmod
                0x100032ec                divmod_u64u64_savestate
                0x10003314                divmod_s64s64_unsafe
                0x1000339c                divmod_u64u64_unsafe
 .text.__wrap___aeabi_darithmetic
                0x100036d4       0x80 CMakeFiles/hello_usb.dir/opt/pico-sdk/src/rp2_common/pico_double/double_aeabi.S.obj
                0x100036d4                __wrap___aeabi_drsub
                0x100036da                __wrap___aeabi_dsub
                0x100036ec                __wrap___aeabi_dadd
                0x100036fe                __wrap___aeabi_ddiv
                0x1000373a                __wrap___aeabi_dmul
 .text.__wrap___aeabi_cdcmple
                0x10003754       0x6c CMakeFiles/hello_usb.dir/opt/pico-sdk/src/rp2_common/pico_double/double_aeabi.S.obj
                0x10003754                __wrap___aeabi_cdrcmple
                0x10003764                __wrap___aeabi_cdcmple
                0x10003764                __wrap___aeabi_cdcmpeq
 .text.__wrap___aeabi_dcmplt
                0x100037c0        0xc CMakeFiles/hello_usb.dir/opt/pico-sdk/src/rp2_common/pico_double/double_aeabi.S.obj
                0x100037c0                __wrap___aeabi_dcmplt
 .text.__wrap___aeabi_dcmple
                0x100037cc       0x10 CMakeFiles/hello_usb.dir/opt/pico-sdk/src/rp2_common/pico_double/double_aeabi.S.obj
                0x100037cc                __wrap___aeabi_dcmple
 .text.__wrap___aeabi_dcmpge
                0x100037dc       0x10 CMakeFiles/hello_usb.dir/opt/pico-sdk/src/rp2_common/pico_double/double_aeabi.S.obj
                0x100037dc                __wrap___aeabi_dcmpge
 .text.__wrap___aeabi_dcmpgt
                0x100037ec        0xa CMakeFiles/hello_usb.dir/opt/pico-sdk/src/rp2_common/pico_double/double_aeabi.S.obj
                0x100037ec                __wrap___aeabi_dcmpgt
 .text.__wrap___aeabi_dcmpun
                0x100037f6       0x1c CMakeFiles/hello_usb.dir/opt/pico-sdk/src/rp2_common/pico_double/double_aeabi.S.obj
                0x100037f6                __wrap___aeabi_dcmpun
 *fill*         0x10003812        0x2 
 .text.__wrap___aeabi_i2d
                0x10003814       0x38 CMakeFiles/hello_usb.dir/opt/pico-sdk/src/rp2_common/pico_double/double_aeabi.S.obj
                0x10003814                __wrap___aeabi_ui2d
                0x1000381c                __wrap___aeabi_i2d
 .text.__wrap___aeabi_d2iz
                0x1000384c       0x48 CMakeFiles/hello_usb.dir/opt/pico-sdk/src/rp2_common/pico_double/double_aeabi.S.obj
                0x1000384c                __wrap___aeabi_d2iz
                0x1000384c                double2int_z
 .text.__wrap___aeabi_d2uiz
                0x10003894       0x18 CMakeFiles/hello_usb.dir/opt/pico-sdk/src/rp2_common/pico_double/double_aeabi.S.obj
                0x10003894                double2uint
                0x10003894                __wrap___aeabi_d2uiz
 .text.__aeabi_double_init
                0x100038ac       0xb8 CMakeFiles/hello_usb.dir/opt/pico-sdk/src/rp2_common/pico_double/double_init_rom.c.obj
                0x100038ac                __aeabi_double_init
 .text.double_table_shim_on_use_helper
                0x10003964       0x34 CMakeFiles/hello_usb.dir/opt/pico-sdk/src/rp2_common/pico_double/double_v1_rom_shim.S.obj
                0x10003964                double_table_shim_on_use_helper
 .text.__wrap___aeabi_dsub
                0x10003998       0x10 CMakeFiles/hello_usb.dir/opt/pico-sdk/src/rp2_common/pico_double/double_v1_rom_shim.S.obj
                0x10003998                drsub_shim
                0x1000399e                dsub_shim
 .text.dadd_shim
                0x100039a8      0x15c CMakeFiles/hello_usb.dir/opt/pico-sdk/src/rp2_common/pico_double/double_v1_rom_shim.S.obj
                0x100039a8                dadd_shim
 .text.dmul_shim
                0x10003b04      0x15c CMakeFiles/hello_usb.dir/opt/pico-sdk/src/rp2_common/pico_double/double_v1_rom_shim.S.obj
                0x10003b04                dmul_shim
 .text.ddiv_shim
                0x10003c60      0x1b0 CMakeFiles/hello_usb.dir/opt/pico-sdk/src/rp2_common/pico_double/double_v1_rom_shim.S.obj
                0x10003c60                ddiv_shim
 .text.dcordic_rot_step
                0x10003e10       0x7c CMakeFiles/hello_usb.dir/opt/pico-sdk/src/rp2_common/pico_double/double_v1_rom_shim.S.obj
                0x10003e10                dcordic_rot_step
 .text.double2uint_shim
                0x10003e8c        0xe CMakeFiles/hello_usb.dir/opt/pico-sdk/src/rp2_common/pico_double/double_v1_rom_shim.S.obj
                0x10003e8c                double2uint_shim
                0x10003e8e                double2ufix_shim
 *fill*         0x10003e9a        0x2 
 .text.double2uint64_shim
                0x10003e9c       0x6c CMakeFiles/hello_usb.dir/opt/pico-sdk/src/rp2_common/pico_double/double_v1_rom_shim.S.obj
                0x10003e9c                double2uint64_shim
                0x10003e9e                double2ufix64_shim
                0x10003eb8                d2fix_a
 .text.dunpacks
                0x10003f08       0x3c CMakeFiles/hello_usb.dir/opt/pico-sdk/src/rp2_common/pico_double/double_v1_rom_shim.S.obj
                0x10003f08                dunpacks
 .text.__aeabi_lmul
                0x10003f44       0x32 CMakeFiles/hello_usb.dir/opt/pico-sdk/src/rp2_common/pico_int64_ops/pico_int64_ops_aeabi.S.obj
                0x10003f44                __wrap___aeabi_lmul
 *fill*         0x10003f76        0x2 
 .text.__aeabi_float_init
                0x10003f78       0xfc CMakeFiles/hello_usb.dir/opt/pico-sdk/src/rp2_common/pico_float/float_init_rom.c.obj
                0x10003f78                __aeabi_float_init
 .text.float_table_shim_on_use_helper
                0x10004074       0x34 CMakeFiles/hello_usb.dir/opt/pico-sdk/src/rp2_common/pico_float/float_v1_rom_shim.S.obj
                0x10004074                float_table_shim_on_use_helper
 .text          0x100040a8       0x10 CMakeFiles/hello_usb.dir/opt/pico-sdk/src/rp2_common/pico_mem_ops/mem_ops_aeabi.S.obj
                0x100040a8                __aeabi_mem_init
 .text.memset   0x100040b8        0xc CMakeFiles/hello_usb.dir/opt/pico-sdk/src/rp2_common/pico_mem_ops/mem_ops_aeabi.S.obj
                0x100040b8                __wrap_memset
 .text.memcpy   0x100040c4        0xc CMakeFiles/hello_usb.dir/opt/pico-sdk/src/rp2_common/pico_mem_ops/mem_ops_aeabi.S.obj
                0x100040c4                __wrap___aeabi_memcpy
                0x100040c4                __wrap_memcpy
 .text.stdio_out_chars_crlf
                0x100040d0       0x80 CMakeFiles/hello_usb.dir/opt/pico-sdk/src/rp2_common/pico_stdio/stdio.c.obj
 .text.stdio_stack_buffer_flush
                0x10004150       0x44 CMakeFiles/hello_usb.dir/opt/pico-sdk/src/rp2_common/pico_stdio/stdio.c.obj
 .text.stdio_buffered_printer
                0x10004194       0x20 CMakeFiles/hello_usb.dir/opt/pico-sdk/src/rp2_common/pico_stdio/stdio.c.obj
 .text.stdout_serialize_begin
                0x100041b4       0x30 CMakeFiles/hello_usb.dir/opt/pico-sdk/src/rp2_common/pico_stdio/stdio.c.obj
                0x100041b4                stdout_serialize_begin
 .text.stdout_serialize_end
                0x100041e4       0x10 CMakeFiles/hello_usb.dir/opt/pico-sdk/src/rp2_common/pico_stdio/stdio.c.obj
                0x100041e4                stdout_serialize_end
 .text.stdio_put_string
                0x100041f4       0x78 CMakeFiles/hello_usb.dir/opt/pico-sdk/src/rp2_common/pico_stdio/stdio.c.obj
 .text.stdio_set_driver_enabled
                0x1000426c       0x38 CMakeFiles/hello_usb.dir/opt/pico-sdk/src/rp2_common/pico_stdio/stdio.c.obj
                0x1000426c                stdio_set_driver_enabled
 .text.stdio_flush
                0x100042a4       0x20 CMakeFiles/hello_usb.dir/opt/pico-sdk/src/rp2_common/pico_stdio/stdio.c.obj
                0x100042a4                stdio_flush
 .text.__wrap_puts
                0x100042c4       0x1c CMakeFiles/hello_usb.dir/opt/pico-sdk/src/rp2_common/pico_stdio/stdio.c.obj
                0x100042c4                __wrap_puts
 .text.__wrap_vprintf
                0x100042e0       0x44 CMakeFiles/hello_usb.dir/opt/pico-sdk/src/rp2_common/pico_stdio/stdio.c.obj
                0x100042e0                __wrap_vprintf
 .text.__wrap_printf
                0x10004324       0x18 CMakeFiles/hello_usb.dir/opt/pico-sdk/src/rp2_common/pico_stdio/stdio.c.obj
                0x10004324                __wrap_printf
 .text.stdio_init_all
                0x1000433c        0x8 CMakeFiles/hello_usb.dir/opt/pico-sdk/src/rp2_common/pico_stdio/stdio.c.obj
                0x1000433c                stdio_init_all
 .text.resetd_init
                0x10004344        0x2 CMakeFiles/hello_usb.dir/opt/pico-sdk/src/rp2_common/pico_stdio_usb/reset_interface.c.obj
 *fill*         0x10004346        0x2 
 .text.resetd_reset
                0x10004348        0xc CMakeFiles/hello_usb.dir/opt/pico-sdk/src/rp2_common/pico_stdio_usb/reset_interface.c.obj
 .text.resetd_open
                0x10004354       0x34 CMakeFiles/hello_usb.dir/opt/pico-sdk/src/rp2_common/pico_stdio_usb/reset_interface.c.obj
 .text.resetd_xfer_cb
                0x10004388        0x4 CMakeFiles/hello_usb.dir/opt/pico-sdk/src/rp2_common/pico_stdio_usb/reset_interface.c.obj
 .text.resetd_control_xfer_cb
                0x1000438c       0x6c CMakeFiles/hello_usb.dir/opt/pico-sdk/src/rp2_common/pico_stdio_usb/reset_interface.c.obj
 .text.usbd_app_driver_get_cb
                0x100043f8        0xc CMakeFiles/hello_usb.dir/opt/pico-sdk/src/rp2_common/pico_stdio_usb/reset_interface.c.obj
                0x100043f8                usbd_app_driver_get_cb
 .text.tud_cdc_line_coding_cb
                0x10004404       0x34 CMakeFiles/hello_usb.dir/opt/pico-sdk/src/rp2_common/pico_stdio_usb/reset_interface.c.obj
                0x10004404                tud_cdc_line_coding_cb
 .text.stdio_usb_in_chars
                0x10004438       0x70 CMakeFiles/hello_usb.dir/opt/pico-sdk/src/rp2_common/pico_stdio_usb/stdio_usb.c.obj
                0x10004438                stdio_usb_in_chars
 .text.low_priority_worker_irq
                0x100044a8       0x20 CMakeFiles/hello_usb.dir/opt/pico-sdk/src/rp2_common/pico_stdio_usb/stdio_usb.c.obj
 .text.stdio_usb_out_chars
                0x100044c8       0xd4 CMakeFiles/hello_usb.dir/opt/pico-sdk/src/rp2_common/pico_stdio_usb/stdio_usb.c.obj
 .text.timer_task
                0x1000459c       0x10 CMakeFiles/hello_usb.dir/opt/pico-sdk/src/rp2_common/pico_stdio_usb/stdio_usb.c.obj
 .text.stdio_usb_init
                0x100045ac       0xb4 CMakeFiles/hello_usb.dir/opt/pico-sdk/src/rp2_common/pico_stdio_usb/stdio_usb.c.obj
                0x100045ac                stdio_usb_init
 .text.tud_descriptor_device_cb
                0x10004660        0x8 CMakeFiles/hello_usb.dir/opt/pico-sdk/src/rp2_common/pico_stdio_usb/stdio_usb_descriptors.c.obj
                0x10004660                tud_descriptor_device_cb
 .text.tud_descriptor_configuration_cb
                0x10004668        0x8 CMakeFiles/hello_usb.dir/opt/pico-sdk/src/rp2_common/pico_stdio_usb/stdio_usb_descriptors.c.obj
                0x10004668                tud_descriptor_configuration_cb
 .text.tud_descriptor_string_cb
                0x10004670       0x68 CMakeFiles/hello_usb.dir/opt/pico-sdk/src/rp2_common/pico_stdio_usb/stdio_usb_descriptors.c.obj
                0x10004670                tud_descriptor_string_cb
 .text.hw_endpoint_get_by_addr
                0x100046d8       0x18 CMakeFiles/hello_usb.dir/opt/pico-sdk/lib/tinyusb/src/portable/raspberrypi/rp2040/dcd_rp2040.c.obj
 .text.reset_ep0
                0x100046f0       0x2c CMakeFiles/hello_usb.dir/opt/pico-sdk/lib/tinyusb/src/portable/raspberrypi/rp2040/dcd_rp2040.c.obj
 .text._hw_endpoint_alloc
                0x1000471c       0x80 CMakeFiles/hello_usb.dir/opt/pico-sdk/lib/tinyusb/src/portable/raspberrypi/rp2040/dcd_rp2040.c.obj
 .text._hw_endpoint_init
                0x1000479c       0xbc CMakeFiles/hello_usb.dir/opt/pico-sdk/lib/tinyusb/src/portable/raspberrypi/rp2040/dcd_rp2040.c.obj
 .text.hw_endpoint_init
                0x10004858       0x18 CMakeFiles/hello_usb.dir/opt/pico-sdk/lib/tinyusb/src/portable/raspberrypi/rp2040/dcd_rp2040.c.obj
 .text.hw_handle_buff_status
                0x10004870       0xb4 CMakeFiles/hello_usb.dir/opt/pico-sdk/lib/tinyusb/src/portable/raspberrypi/rp2040/dcd_rp2040.c.obj
 .text.dcd_rp2040_irq
                0x10004924       0xa4 CMakeFiles/hello_usb.dir/opt/pico-sdk/lib/tinyusb/src/portable/raspberrypi/rp2040/dcd_rp2040.c.obj
 .text.hw_endpoint_xfer
                0x100049c8       0x18 CMakeFiles/hello_usb.dir/opt/pico-sdk/lib/tinyusb/src/portable/raspberrypi/rp2040/dcd_rp2040.c.obj
 .text.ep0_0len_status
                0x100049e0       0x14 CMakeFiles/hello_usb.dir/opt/pico-sdk/lib/tinyusb/src/portable/raspberrypi/rp2040/dcd_rp2040.c.obj
 .text._hw_endpoint_stall
                0x100049f4       0x54 CMakeFiles/hello_usb.dir/opt/pico-sdk/lib/tinyusb/src/portable/raspberrypi/rp2040/dcd_rp2040.c.obj
 .text.hw_endpoint_stall
                0x10004a48        0xc CMakeFiles/hello_usb.dir/opt/pico-sdk/lib/tinyusb/src/portable/raspberrypi/rp2040/dcd_rp2040.c.obj
 .text._hw_endpoint_clear_stall
                0x10004a54       0x34 CMakeFiles/hello_usb.dir/opt/pico-sdk/lib/tinyusb/src/portable/raspberrypi/rp2040/dcd_rp2040.c.obj
 .text.hw_endpoint_clear_stall
                0x10004a88        0xc CMakeFiles/hello_usb.dir/opt/pico-sdk/lib/tinyusb/src/portable/raspberrypi/rp2040/dcd_rp2040.c.obj
 .text.dcd_int_enable
                0x10004a94       0x2c CMakeFiles/hello_usb.dir/opt/pico-sdk/lib/tinyusb/src/portable/raspberrypi/rp2040/dcd_rp2040.c.obj
                0x10004a94                dcd_int_enable
 .text.dcd_set_address
                0x10004ac0       0x28 CMakeFiles/hello_usb.dir/opt/pico-sdk/lib/tinyusb/src/portable/raspberrypi/rp2040/dcd_rp2040.c.obj
                0x10004ac0                dcd_set_address
 .text.dcd_connect
                0x10004ae8       0x30 CMakeFiles/hello_usb.dir/opt/pico-sdk/lib/tinyusb/src/portable/raspberrypi/rp2040/dcd_rp2040.c.obj
                0x10004ae8                dcd_connect
 .text.dcd_init
                0x10004b18       0x84 CMakeFiles/hello_usb.dir/opt/pico-sdk/lib/tinyusb/src/portable/raspberrypi/rp2040/dcd_rp2040.c.obj
                0x10004b18                dcd_init
 .text.dcd_edpt0_status_complete
                0x10004b9c       0x40 CMakeFiles/hello_usb.dir/opt/pico-sdk/lib/tinyusb/src/portable/raspberrypi/rp2040/dcd_rp2040.c.obj
                0x10004b9c                dcd_edpt0_status_complete
 .text.dcd_edpt_open
                0x10004bdc       0x40 CMakeFiles/hello_usb.dir/opt/pico-sdk/lib/tinyusb/src/portable/raspberrypi/rp2040/dcd_rp2040.c.obj
                0x10004bdc                dcd_edpt_open
 .text.dcd_edpt_xfer
                0x10004c1c       0x34 CMakeFiles/hello_usb.dir/opt/pico-sdk/lib/tinyusb/src/portable/raspberrypi/rp2040/dcd_rp2040.c.obj
                0x10004c1c                dcd_edpt_xfer
 .text.dcd_edpt_stall
                0x10004c50       0x28 CMakeFiles/hello_usb.dir/opt/pico-sdk/lib/tinyusb/src/portable/raspberrypi/rp2040/dcd_rp2040.c.obj
                0x10004c50                dcd_edpt_stall
 .text.dcd_edpt_clear_stall
                0x10004c78       0x2c CMakeFiles/hello_usb.dir/opt/pico-sdk/lib/tinyusb/src/portable/raspberrypi/rp2040/dcd_rp2040.c.obj
                0x10004c78                dcd_edpt_clear_stall
 .text.rp2040_usb_init
                0x10004ca4       0x50 CMakeFiles/hello_usb.dir/opt/pico-sdk/lib/tinyusb/src/portable/raspberrypi/rp2040/rp2040_usb.c.obj
                0x10004ca4                rp2040_usb_init
 .text.hw_endpoint_reset_transfer
                0x10004cf4       0x10 CMakeFiles/hello_usb.dir/opt/pico-sdk/lib/tinyusb/src/portable/raspberrypi/rp2040/rp2040_usb.c.obj
                0x10004cf4                hw_endpoint_reset_transfer
 .text._hw_endpoint_buffer_control_update32
                0x10004d04       0x58 CMakeFiles/hello_usb.dir/opt/pico-sdk/lib/tinyusb/src/portable/raspberrypi/rp2040/rp2040_usb.c.obj
                0x10004d04                _hw_endpoint_buffer_control_update32
 .text._hw_endpoint_start_next_buffer
                0x10004d5c       0x50 CMakeFiles/hello_usb.dir/opt/pico-sdk/lib/tinyusb/src/portable/raspberrypi/rp2040/rp2040_usb.c.obj
                0x10004d5c                _hw_endpoint_start_next_buffer
 .text._hw_endpoint_xfer_start
                0x10004dac       0x3e CMakeFiles/hello_usb.dir/opt/pico-sdk/lib/tinyusb/src/portable/raspberrypi/rp2040/rp2040_usb.c.obj
                0x10004dac                _hw_endpoint_xfer_start
 *fill*         0x10004dea        0x2 
 .text._hw_endpoint_xfer_sync
                0x10004dec       0x74 CMakeFiles/hello_usb.dir/opt/pico-sdk/lib/tinyusb/src/portable/raspberrypi/rp2040/rp2040_usb.c.obj
                0x10004dec                _hw_endpoint_xfer_sync
 .text._hw_endpoint_xfer_continue
                0x10004e60       0x60 CMakeFiles/hello_usb.dir/opt/pico-sdk/lib/tinyusb/src/portable/raspberrypi/rp2040/rp2040_usb.c.obj
                0x10004e60                _hw_endpoint_xfer_continue
 .text._hw_endpoint_xfer
                0x10004ec0       0x34 CMakeFiles/hello_usb.dir/opt/pico-sdk/lib/tinyusb/src/portable/raspberrypi/rp2040/rp2040_usb.c.obj
                0x10004ec0                _hw_endpoint_xfer
 .text.mark_interface_endpoint
                0x10004ef4       0x2a CMakeFiles/hello_usb.dir/opt/pico-sdk/lib/tinyusb/src/device/usbd.c.obj
 *fill*         0x10004f1e        0x2 
 .text.usbd_reset
                0x10004f20       0x8c CMakeFiles/hello_usb.dir/opt/pico-sdk/lib/tinyusb/src/device/usbd.c.obj
 .text.invoke_class_control
                0x10004fac       0x1a CMakeFiles/hello_usb.dir/opt/pico-sdk/lib/tinyusb/src/device/usbd.c.obj
 *fill*         0x10004fc6        0x2 
 .text.process_set_config
                0x10004fc8      0x1d8 CMakeFiles/hello_usb.dir/opt/pico-sdk/lib/tinyusb/src/device/usbd.c.obj
 .text.process_get_descriptor
                0x100051a0      0x104 CMakeFiles/hello_usb.dir/opt/pico-sdk/lib/tinyusb/src/device/usbd.c.obj
 .text.tud_mounted
                0x100052a4       0x10 CMakeFiles/hello_usb.dir/opt/pico-sdk/lib/tinyusb/src/device/usbd.c.obj
                0x100052a4                tud_mounted
 .text.tud_suspended
                0x100052b4       0x10 CMakeFiles/hello_usb.dir/opt/pico-sdk/lib/tinyusb/src/device/usbd.c.obj
                0x100052b4                tud_suspended
 .text.tud_inited
                0x100052c4        0xc CMakeFiles/hello_usb.dir/opt/pico-sdk/lib/tinyusb/src/device/usbd.c.obj
                0x100052c4                tud_inited
 .text.tud_init
                0x100052d0       0xd0 CMakeFiles/hello_usb.dir/opt/pico-sdk/lib/tinyusb/src/device/usbd.c.obj
                0x100052d0                tud_init
 .text.dcd_event_handler
                0x100053a0      0x178 CMakeFiles/hello_usb.dir/opt/pico-sdk/lib/tinyusb/src/device/usbd.c.obj
                0x100053a0                dcd_event_handler
 .text.dcd_event_bus_signal
                0x10005518       0x28 CMakeFiles/hello_usb.dir/opt/pico-sdk/lib/tinyusb/src/device/usbd.c.obj
                0x10005518                dcd_event_bus_signal
 .text.dcd_event_bus_reset
                0x10005540       0x2c CMakeFiles/hello_usb.dir/opt/pico-sdk/lib/tinyusb/src/device/usbd.c.obj
                0x10005540                dcd_event_bus_reset
 .text.dcd_event_setup_received
                0x1000556c       0x34 CMakeFiles/hello_usb.dir/opt/pico-sdk/lib/tinyusb/src/device/usbd.c.obj
                0x1000556c                dcd_event_setup_received
 .text.dcd_event_xfer_complete
                0x100055a0       0x46 CMakeFiles/hello_usb.dir/opt/pico-sdk/lib/tinyusb/src/device/usbd.c.obj
                0x100055a0                dcd_event_xfer_complete
 *fill*         0x100055e6        0x2 
 .text.usbd_edpt_open
                0x100055e8       0xe0 CMakeFiles/hello_usb.dir/opt/pico-sdk/lib/tinyusb/src/device/usbd.c.obj
                0x100055e8                usbd_edpt_open
 .text.usbd_open_edpt_pair
                0x100056c8       0x84 CMakeFiles/hello_usb.dir/opt/pico-sdk/lib/tinyusb/src/device/usbd.c.obj
                0x100056c8                usbd_open_edpt_pair
 .text.usbd_edpt_claim
                0x1000574c       0x88 CMakeFiles/hello_usb.dir/opt/pico-sdk/lib/tinyusb/src/device/usbd.c.obj
                0x1000574c                usbd_edpt_claim
 .text.usbd_edpt_release
                0x100057d4       0x68 CMakeFiles/hello_usb.dir/opt/pico-sdk/lib/tinyusb/src/device/usbd.c.obj
                0x100057d4                usbd_edpt_release
 .text.usbd_edpt_xfer
                0x1000583c       0x80 CMakeFiles/hello_usb.dir/opt/pico-sdk/lib/tinyusb/src/device/usbd.c.obj
                0x1000583c                usbd_edpt_xfer
 .text.usbd_edpt_stall
                0x100058bc       0x2c CMakeFiles/hello_usb.dir/opt/pico-sdk/lib/tinyusb/src/device/usbd.c.obj
                0x100058bc                usbd_edpt_stall
 .text.usbd_edpt_clear_stall
                0x100058e8       0x2c CMakeFiles/hello_usb.dir/opt/pico-sdk/lib/tinyusb/src/device/usbd.c.obj
                0x100058e8                usbd_edpt_clear_stall
 .text.usbd_edpt_stalled
                0x10005914       0x1c CMakeFiles/hello_usb.dir/opt/pico-sdk/lib/tinyusb/src/device/usbd.c.obj
                0x10005914                usbd_edpt_stalled
 .text.process_control_request
                0x10005930      0x380 CMakeFiles/hello_usb.dir/opt/pico-sdk/lib/tinyusb/src/device/usbd.c.obj
 .text.tud_task
                0x10005cb0      0x208 CMakeFiles/hello_usb.dir/opt/pico-sdk/lib/tinyusb/src/device/usbd.c.obj
                0x10005cb0                tud_task
 .text._data_stage_xact
                0x10005eb8       0x58 CMakeFiles/hello_usb.dir/opt/pico-sdk/lib/tinyusb/src/device/usbd_control.c.obj
 .text.tud_control_status
                0x10005f10       0x38 CMakeFiles/hello_usb.dir/opt/pico-sdk/lib/tinyusb/src/device/usbd_control.c.obj
                0x10005f10                tud_control_status
 .text.tud_control_xfer
                0x10005f48       0xa4 CMakeFiles/hello_usb.dir/opt/pico-sdk/lib/tinyusb/src/device/usbd_control.c.obj
                0x10005f48                tud_control_xfer
 .text.usbd_control_reset
                0x10005fec       0x14 CMakeFiles/hello_usb.dir/opt/pico-sdk/lib/tinyusb/src/device/usbd_control.c.obj
                0x10005fec                usbd_control_reset
 .text.usbd_control_set_complete_callback
                0x10006000        0xc CMakeFiles/hello_usb.dir/opt/pico-sdk/lib/tinyusb/src/device/usbd_control.c.obj
                0x10006000                usbd_control_set_complete_callback
 .text.usbd_control_set_request
                0x1000600c       0x1c CMakeFiles/hello_usb.dir/opt/pico-sdk/lib/tinyusb/src/device/usbd_control.c.obj
                0x1000600c                usbd_control_set_request
 .text.usbd_control_xfer_cb
                0x10006028      0x100 CMakeFiles/hello_usb.dir/opt/pico-sdk/lib/tinyusb/src/device/usbd_control.c.obj
                0x10006028                usbd_control_xfer_cb
 .text._prep_out_transaction
                0x10006128       0x46 CMakeFiles/hello_usb.dir/opt/pico-sdk/lib/tinyusb/src/class/cdc/cdc_device.c.obj
 *fill*         0x1000616e        0x2 
 .text.tud_cdc_n_connected
                0x10006170       0x44 CMakeFiles/hello_usb.dir/opt/pico-sdk/lib/tinyusb/src/class/cdc/cdc_device.c.obj
                0x10006170                tud_cdc_n_connected
 .text.tud_cdc_n_available
                0x100061b4       0x1c CMakeFiles/hello_usb.dir/opt/pico-sdk/lib/tinyusb/src/class/cdc/cdc_device.c.obj
                0x100061b4                tud_cdc_n_available
 .text.tud_cdc_n_read
                0x100061d0       0x28 CMakeFiles/hello_usb.dir/opt/pico-sdk/lib/tinyusb/src/class/cdc/cdc_device.c.obj
                0x100061d0                tud_cdc_n_read
 .text.tud_cdc_n_write_flush
                0x100061f8       0xcc CMakeFiles/hello_usb.dir/opt/pico-sdk/lib/tinyusb/src/class/cdc/cdc_device.c.obj
                0x100061f8                tud_cdc_n_write_flush
 .text.tud_cdc_n_write
                0x100062c4       0x38 CMakeFiles/hello_usb.dir/opt/pico-sdk/lib/tinyusb/src/class/cdc/cdc_device.c.obj
                0x100062c4                tud_cdc_n_write
 .text.tud_cdc_n_write_available
                0x100062fc       0x1c CMakeFiles/hello_usb.dir/opt/pico-sdk/lib/tinyusb/src/class/cdc/cdc_device.c.obj
                0x100062fc                tud_cdc_n_write_available
 .text.cdcd_init
                0x10006318       0xb8 CMakeFiles/hello_usb.dir/opt/pico-sdk/lib/tinyusb/src/class/cdc/cdc_device.c.obj
                0x10006318                cdcd_init
 .text.cdcd_reset
                0x100063d0       0x44 CMakeFiles/hello_usb.dir/opt/pico-sdk/lib/tinyusb/src/class/cdc/cdc_device.c.obj
                0x100063d0                cdcd_reset
 .text.cdcd_open
                0x10006414      0x10c CMakeFiles/hello_usb.dir/opt/pico-sdk/lib/tinyusb/src/class/cdc/cdc_device.c.obj
                0x10006414                cdcd_open
 .text.cdcd_control_xfer_cb
                0x10006520      0x12c CMakeFiles/hello_usb.dir/opt/pico-sdk/lib/tinyusb/src/class/cdc/cdc_device.c.obj
                0x10006520                cdcd_control_xfer_cb
 .text.cdcd_xfer_cb
                0x1000664c      0x13c CMakeFiles/hello_usb.dir/opt/pico-sdk/lib/tinyusb/src/class/cdc/cdc_device.c.obj
                0x1000664c                cdcd_xfer_cb
 .text.tusb_init
                0x10006788       0x24 CMakeFiles/hello_usb.dir/opt/pico-sdk/lib/tinyusb/src/tusb.c.obj
                0x10006788                tusb_init
 .text.tusb_inited
                0x100067ac        0xe CMakeFiles/hello_usb.dir/opt/pico-sdk/lib/tinyusb/src/tusb.c.obj
                0x100067ac                tusb_inited
 .text.advance_pointer
                0x100067ba       0x20 CMakeFiles/hello_usb.dir/opt/pico-sdk/lib/tinyusb/src/common/tusb_fifo.c.obj
 .text.backward_pointer
                0x100067da       0x20 CMakeFiles/hello_usb.dir/opt/pico-sdk/lib/tinyusb/src/common/tusb_fifo.c.obj
 .text.get_relative_pointer
                0x100067fa       0x10 CMakeFiles/hello_usb.dir/opt/pico-sdk/lib/tinyusb/src/common/tusb_fifo.c.obj
 .text._tu_fifo_peek
                0x1000680a       0x4c CMakeFiles/hello_usb.dir/opt/pico-sdk/lib/tinyusb/src/common/tusb_fifo.c.obj
 .text._ff_pull_const_addr
                0x10006856       0x46 CMakeFiles/hello_usb.dir/opt/pico-sdk/lib/tinyusb/src/common/tusb_fifo.c.obj
 .text._ff_pull_n
                0x1000689c       0xfe CMakeFiles/hello_usb.dir/opt/pico-sdk/lib/tinyusb/src/common/tusb_fifo.c.obj
 .text._tu_fifo_peek_n
                0x1000699a       0x5e CMakeFiles/hello_usb.dir/opt/pico-sdk/lib/tinyusb/src/common/tusb_fifo.c.obj
 .text._tu_fifo_read_n
                0x100069f8       0x4e CMakeFiles/hello_usb.dir/opt/pico-sdk/lib/tinyusb/src/common/tusb_fifo.c.obj
 .text._ff_push_const_addr
                0x10006a46       0x3a CMakeFiles/hello_usb.dir/opt/pico-sdk/lib/tinyusb/src/common/tusb_fifo.c.obj
 .text._ff_push_n
                0x10006a80       0xfa CMakeFiles/hello_usb.dir/opt/pico-sdk/lib/tinyusb/src/common/tusb_fifo.c.obj
 .text._tu_fifo_write_n
                0x10006b7a       0x9e CMakeFiles/hello_usb.dir/opt/pico-sdk/lib/tinyusb/src/common/tusb_fifo.c.obj
 .text.tu_fifo_config
                0x10006c18       0x72 CMakeFiles/hello_usb.dir/opt/pico-sdk/lib/tinyusb/src/common/tusb_fifo.c.obj
                0x10006c18                tu_fifo_config
 .text.tu_fifo_count
                0x10006c8a       0x24 CMakeFiles/hello_usb.dir/opt/pico-sdk/lib/tinyusb/src/common/tusb_fifo.c.obj
                0x10006c8a                tu_fifo_count
 .text.tu_fifo_empty
                0x10006cae        0xe CMakeFiles/hello_usb.dir/opt/pico-sdk/lib/tinyusb/src/common/tusb_fifo.c.obj
                0x10006cae                tu_fifo_empty
 .text.tu_fifo_remaining
                0x10006cbc       0x20 CMakeFiles/hello_usb.dir/opt/pico-sdk/lib/tinyusb/src/common/tusb_fifo.c.obj
                0x10006cbc                tu_fifo_remaining
 .text.tu_fifo_read
                0x10006cdc       0x42 CMakeFiles/hello_usb.dir/opt/pico-sdk/lib/tinyusb/src/common/tusb_fifo.c.obj
                0x10006cdc                tu_fifo_read
 .text.tu_fifo_read_n
                0x10006d1e        0xa CMakeFiles/hello_usb.dir/opt/pico-sdk/lib/tinyusb/src/common/tusb_fifo.c.obj
                0x10006d1e                tu_fifo_read_n
 .text.tu_fifo_write
                0x10006d28       0x6c CMakeFiles/hello_usb.dir/opt/pico-sdk/lib/tinyusb/src/common/tusb_fifo.c.obj
                0x10006d28                tu_fifo_write
 .text.tu_fifo_write_n
                0x10006d94        0xa CMakeFiles/hello_usb.dir/opt/pico-sdk/lib/tinyusb/src/common/tusb_fifo.c.obj
                0x10006d94                tu_fifo_write_n
 .text.tu_fifo_clear
                0x10006d9e       0x4c CMakeFiles/hello_usb.dir/opt/pico-sdk/lib/tinyusb/src/common/tusb_fifo.c.obj
                0x10006d9e                tu_fifo_clear
 .text.tu_fifo_set_overwritable
                0x10006dea       0x3c CMakeFiles/hello_usb.dir/opt/pico-sdk/lib/tinyusb/src/common/tusb_fifo.c.obj
                0x10006dea                tu_fifo_set_overwritable
 *fill*         0x10006e26        0x2 
 .text._retrieve_unique_id_on_boot
                0x10006e28       0x10 CMakeFiles/hello_usb.dir/opt/pico-sdk/src/rp2_common/pico_unique_id/unique_id.c.obj
 .text.pico_get_unique_board_id_string
                0x10006e38       0x60 CMakeFiles/hello_usb.dir/opt/pico-sdk/src/rp2_common/pico_unique_id/unique_id.c.obj
                0x10006e38                pico_get_unique_board_id_string
 .text.flash_get_unique_id
                0x10006e98       0x40 CMakeFiles/hello_usb.dir/opt/pico-sdk/src/rp2_common/hardware_flash/flash.c.obj
                0x10006e98                flash_get_unique_id
 .text          0x10006ed8       0x64 /usr/lib/gcc/arm-none-eabi/7.3.1/../../../arm-none-eabi/lib/thumb/v6-m/libg.a(lib_a-strlen-stub.o)
                0x10006ed8                strlen
 *(.fini)
 .fini          0x10006f3c        0x4 /usr/lib/gcc/arm-none-eabi/7.3.1/thumb/v6-m/crti.o
                0x10006f3c                _fini
 .fini.__stub   0x10006f40       0x70 linker stubs
 *crtbegin.o(.ctors)
 *crtbegin?.o(.ctors)
 *(EXCLUDE_FILE(*crtend.o *crtend?.o) .ctors)
 *(SORT_BY_NAME(.ctors.*))
 *(.ctors)
 *crtbegin.o(.dtors)
 *crtbegin?.o(.dtors)
 *(EXCLUDE_FILE(*crtend.o *crtend?.o) .dtors)
 *(SORT_BY_NAME(.dtors.*))
 *(.dtors)
 *(.eh_frame*)
 .eh_frame      0x10006fb0        0x0 /usr/lib/gcc/arm-none-eabi/7.3.1/thumb/v6-m/crtbegin.o
                0x10006fb0                . = ALIGN (0x4)

.glue_7         0x10006fb0        0x0
 .glue_7        0x10006fb0        0x0 linker stubs

.glue_7t        0x10006fb0        0x0
 .glue_7t       0x10006fb0        0x0 linker stubs

.vfp11_veneer   0x10006fb0        0x0
 .vfp11_veneer  0x10006fb0        0x0 linker stubs

.v4_bx          0x10006fb0        0x0
 .v4_bx         0x10006fb0        0x0 linker stubs

.iplt           0x10006fb0        0x0
 .iplt          0x10006fb0        0x0 /usr/lib/gcc/arm-none-eabi/7.3.1/thumb/v6-m/crtbegin.o

.rodata         0x10006fb0     0x15bc
 *(EXCLUDE_FILE(*libm.a: *libc.a:*lib_a-mem*.o *libgcc.a:) .rodata*)
 .rodata.main.str1.4
                0x10006fb0        0xe CMakeFiles/hello_usb.dir/hello_usb.c.obj
 *fill*         0x10006fbe        0x2 
 .rodata.spin_lock_claim_unused.str1.4
                0x10006fc0       0x1b CMakeFiles/hello_usb.dir/opt/pico-sdk/src/rp2_common/hardware_sync/sync.c.obj
 *fill*         0x10006fdb        0x1 
 .rodata.__func__.5648
                0x10006fdc       0x15 CMakeFiles/hello_usb.dir/opt/pico-sdk/src/common/pico_time/time.c.obj
 *fill*         0x10006ff1        0x3 
 .rodata.__func__.5949
                0x10006ff4        0xc CMakeFiles/hello_usb.dir/opt/pico-sdk/src/common/pico_time/time.c.obj
 .rodata.__func__.5956
                0x10007000       0x12 CMakeFiles/hello_usb.dir/opt/pico-sdk/src/common/pico_time/time.c.obj
 *fill*         0x10007012        0x2 
 .rodata.__func__.5972
                0x10007014        0xf CMakeFiles/hello_usb.dir/opt/pico-sdk/src/common/pico_time/time.c.obj
 *fill*         0x10007023        0x1 
 .rodata.__func__.5994
                0x10007024        0xd CMakeFiles/hello_usb.dir/opt/pico-sdk/src/common/pico_time/time.c.obj
 *fill*         0x10007031        0x3 
 .rodata.__func__.6195
                0x10007034        0xa CMakeFiles/hello_usb.dir/opt/pico-sdk/src/common/pico_time/time.c.obj
 *fill*         0x1000703e        0x2 
 .rodata.__func__.6200
                0x10007040       0x12 CMakeFiles/hello_usb.dir/opt/pico-sdk/src/common/pico_time/time.c.obj
 *fill*         0x10007052        0x2 
 .rodata.__func__.6215
                0x10007054       0x17 CMakeFiles/hello_usb.dir/opt/pico-sdk/src/common/pico_time/time.c.obj
 *fill*         0x1000706b        0x1 
 .rodata.__func__.6226
                0x1000706c       0x15 CMakeFiles/hello_usb.dir/opt/pico-sdk/src/common/pico_time/time.c.obj
 *fill*         0x10007081        0x3 
 .rodata.__func__.6243
                0x10007084       0x1a CMakeFiles/hello_usb.dir/opt/pico-sdk/src/common/pico_time/time.c.obj
 *fill*         0x1000709e        0x2 
 .rodata.__func__.6282
                0x100070a0       0x18 CMakeFiles/hello_usb.dir/opt/pico-sdk/src/common/pico_time/time.c.obj
 .rodata.add_alarm_under_lock.str1.4
                0x100070b8       0x28 CMakeFiles/hello_usb.dir/opt/pico-sdk/src/common/pico_time/time.c.obj
                                 0x2b (size before relaxing)
 .rodata.alarm_pool_alarm_callback.str1.4
                0x100070e0       0xd6 CMakeFiles/hello_usb.dir/opt/pico-sdk/src/common/pico_time/time.c.obj
 *fill*         0x100071b6        0x2 
 .rodata.alarm_pool_cancel_alarm.str1.4
                0x100071b8       0x27 CMakeFiles/hello_usb.dir/opt/pico-sdk/src/common/pico_time/time.c.obj
 *fill*         0x100071df        0x1 
 .rodata.alarm_pool_dump_key.str1.4
                0x100071e0       0x33 CMakeFiles/hello_usb.dir/opt/pico-sdk/src/common/pico_time/time.c.obj
 *fill*         0x10007213        0x1 
 .rodata.alarm_pool_get_default.str1.4
                0x10007214       0x21 CMakeFiles/hello_usb.dir/opt/pico-sdk/src/common/pico_time/time.c.obj
 *fill*         0x10007235        0x3 
 .rodata.ph_add_child_node.str1.4
                0x10007238       0x8a CMakeFiles/hello_usb.dir/opt/pico-sdk/src/common/pico_time/time.c.obj
 *fill*         0x100072c2        0x2 
 .rodata.repeating_timer_callback.str1.4
                0x100072c4       0x3e CMakeFiles/hello_usb.dir/opt/pico-sdk/src/common/pico_time/time.c.obj
 *fill*         0x10007302        0x2 
 .rodata.sleep_until.str1.4
                0x10007304       0x4d CMakeFiles/hello_usb.dir/opt/pico-sdk/src/common/pico_time/time.c.obj
 *fill*         0x10007351        0x3 
 .rodata.__func__.4508
                0x10007354       0x1a CMakeFiles/hello_usb.dir/opt/pico-sdk/src/rp2_common/hardware_timer/timer.c.obj
 *fill*         0x1000736e        0x2 
 .rodata.hardware_alarm_claim.str1.4
                0x10007370       0x22 CMakeFiles/hello_usb.dir/opt/pico-sdk/src/rp2_common/hardware_timer/timer.c.obj
 *fill*         0x10007392        0x2 
 .rodata.hardware_alarm_set_target.str1.4
                0x10007394       0x58 CMakeFiles/hello_usb.dir/opt/pico-sdk/src/rp2_common/hardware_timer/timer.c.obj
 .rodata.__func__.4173
                0x100073ec       0x15 CMakeFiles/hello_usb.dir/opt/pico-sdk/src/common/pico_sync/mutex.c.obj
 *fill*         0x10007401        0x3 
 .rodata.__func__.4570
                0x10007404       0x15 CMakeFiles/hello_usb.dir/opt/pico-sdk/src/common/pico_sync/mutex.c.obj
 *fill*         0x10007419        0x3 
 .rodata.__func__.4595
                0x1000741c       0x18 CMakeFiles/hello_usb.dir/opt/pico-sdk/src/common/pico_sync/mutex.c.obj
 .rodata.__func__.4605
                0x10007434        0xb CMakeFiles/hello_usb.dir/opt/pico-sdk/src/common/pico_sync/mutex.c.obj
 *fill*         0x1000743f        0x1 
 .rodata.str1.4
                0x10007440       0xa5 CMakeFiles/hello_usb.dir/opt/pico-sdk/src/common/pico_sync/mutex.c.obj
                                 0xf9 (size before relaxing)
 *fill*         0x100074e5        0x3 
 .rodata.__func__.5655
                0x100074e8        0xc CMakeFiles/hello_usb.dir/opt/pico-sdk/src/common/pico_util/pheap.c.obj
 .rodata.__func__.5662
                0x100074f4       0x12 CMakeFiles/hello_usb.dir/opt/pico-sdk/src/common/pico_util/pheap.c.obj
 *fill*         0x10007506        0x2 
 .rodata.__func__.5748
                0x10007508       0x13 CMakeFiles/hello_usb.dir/opt/pico-sdk/src/common/pico_util/pheap.c.obj
 *fill*         0x1000751b        0x1 
 .rodata.__func__.5766
                0x1000751c       0x18 CMakeFiles/hello_usb.dir/opt/pico-sdk/src/common/pico_util/pheap.c.obj
 .rodata.ph_add_child_node.str1.4
                0x10007534       0x8a CMakeFiles/hello_usb.dir/opt/pico-sdk/src/common/pico_util/pheap.c.obj
 .rodata.ph_remove_and_free_node.str1.4
                0x10007534       0x26 CMakeFiles/hello_usb.dir/opt/pico-sdk/src/common/pico_util/pheap.c.obj
 *fill*         0x1000755a        0x2 
 .rodata.ph_remove_any_head.str1.4
                0x1000755c       0x80 CMakeFiles/hello_usb.dir/opt/pico-sdk/src/common/pico_util/pheap.c.obj
 .rodata.__assert_func.str1.4
                0x100075dc       0x3f CMakeFiles/hello_usb.dir/opt/pico-sdk/src/rp2_common/pico_runtime/runtime.c.obj
                                 0x43 (size before relaxing)
 *fill*         0x1000761b        0x1 
 .rodata.panic.str1.4
                0x1000761c       0x12 CMakeFiles/hello_usb.dir/opt/pico-sdk/src/rp2_common/pico_runtime/runtime.c.obj
 *fill*         0x1000762e        0x2 
 .rodata.__func__.4627
                0x10007630       0x10 CMakeFiles/hello_usb.dir/opt/pico-sdk/src/rp2_common/hardware_clocks/clocks.c.obj
 .rodata.clock_configure.str1.4
                0x10007640       0x4a CMakeFiles/hello_usb.dir/opt/pico-sdk/src/rp2_common/hardware_clocks/clocks.c.obj
 *fill*         0x1000768a        0x2 
 .rodata.__func__.4663
                0x1000768c       0x1a CMakeFiles/hello_usb.dir/opt/pico-sdk/src/rp2_common/hardware_irq/irq.c.obj
 *fill*         0x100076a6        0x2 
 .rodata.__func__.4677
                0x100076a8        0xc CMakeFiles/hello_usb.dir/opt/pico-sdk/src/rp2_common/hardware_irq/irq.c.obj
 .rodata.__func__.4685
                0x100076b4       0x17 CMakeFiles/hello_usb.dir/opt/pico-sdk/src/rp2_common/hardware_irq/irq.c.obj
 *fill*         0x100076cb        0x1 
 .rodata.__func__.4689
                0x100076cc        0xf CMakeFiles/hello_usb.dir/opt/pico-sdk/src/rp2_common/hardware_irq/irq.c.obj
 *fill*         0x100076db        0x1 
 .rodata.__func__.4728
                0x100076dc       0x13 CMakeFiles/hello_usb.dir/opt/pico-sdk/src/rp2_common/hardware_irq/irq.c.obj
 *fill*         0x100076ef        0x1 
 .rodata.__func__.4747
                0x100076f0       0x1a CMakeFiles/hello_usb.dir/opt/pico-sdk/src/rp2_common/hardware_irq/irq.c.obj
 *fill*         0x1000770a        0x2 
 .rodata.irq_add_shared_handler.str1.4
                0x1000770c       0xd9 CMakeFiles/hello_usb.dir/opt/pico-sdk/src/rp2_common/hardware_irq/irq.c.obj
 *fill*         0x100077e5        0x3 
 .rodata.irq_add_tail_to_free_list.str1.4
                0x100077e8       0x32 CMakeFiles/hello_usb.dir/opt/pico-sdk/src/rp2_common/hardware_irq/irq.c.obj
                                 0x3a (size before relaxing)
 *fill*         0x1000781a        0x2 
 .rodata.irq_remove_handler.str1.4
                0x1000781c       0x2a CMakeFiles/hello_usb.dir/opt/pico-sdk/src/rp2_common/hardware_irq/irq.c.obj
 *fill*         0x10007846        0x2 
 .rodata.irq_set_exclusive_handler.str1.4
                0x10007848       0x36 CMakeFiles/hello_usb.dir/opt/pico-sdk/src/rp2_common/hardware_irq/irq.c.obj
 *fill*         0x1000787e        0x2 
 .rodata.make_branch.str1.4
                0x10007880       0x40 CMakeFiles/hello_usb.dir/opt/pico-sdk/src/rp2_common/hardware_irq/irq.c.obj
 .rodata.__func__.4362
                0x100078c0        0x9 CMakeFiles/hello_usb.dir/opt/pico-sdk/src/rp2_common/hardware_pll/pll.c.obj
 *fill*         0x100078c9        0x3 
 .rodata.pll_init.str1.4
                0x100078cc       0xcb CMakeFiles/hello_usb.dir/opt/pico-sdk/src/rp2_common/hardware_pll/pll.c.obj
 *fill*         0x10007997        0x1 
 .rodata._vsnprintf
                0x10007998      0x1e0 CMakeFiles/hello_usb.dir/opt/pico-sdk/src/rp2_common/pico_printf/printf.c.obj
 .rodata._ftoa.str1.4
                0x10007b78       0x15 CMakeFiles/hello_usb.dir/opt/pico-sdk/src/rp2_common/pico_printf/printf.c.obj
 *fill*         0x10007b8d        0x3 
 .rodata.pow10.5369
                0x10007b90       0x50 CMakeFiles/hello_usb.dir/opt/pico-sdk/src/rp2_common/pico_printf/printf.c.obj
 .rodata.__aeabi_double_init.str1.4
                0x10007be0       0x9b CMakeFiles/hello_usb.dir/opt/pico-sdk/src/rp2_common/pico_double/double_init_rom.c.obj
 *fill*         0x10007c7b        0x1 
 .rodata.__func__.4628
                0x10007c7c       0x14 CMakeFiles/hello_usb.dir/opt/pico-sdk/src/rp2_common/pico_double/double_init_rom.c.obj
 .rodata.__aeabi_float_init.str1.4
                0x10007c90       0x6d CMakeFiles/hello_usb.dir/opt/pico-sdk/src/rp2_common/pico_float/float_init_rom.c.obj
                                 0x71 (size before relaxing)
 *fill*         0x10007cfd        0x3 
 .rodata.__func__.4630
                0x10007d00       0x13 CMakeFiles/hello_usb.dir/opt/pico-sdk/src/rp2_common/pico_float/float_init_rom.c.obj
 *fill*         0x10007d13        0x1 
 .rodata.__bi_44
                0x10007d14        0xc CMakeFiles/hello_usb.dir/opt/pico-sdk/src/rp2_common/pico_standard_link/binary_info.c.obj
 .rodata.__bi_69
                0x10007d20        0xc CMakeFiles/hello_usb.dir/opt/pico-sdk/src/rp2_common/pico_standard_link/binary_info.c.obj
 .rodata.__bi_75
                0x10007d2c        0xc CMakeFiles/hello_usb.dir/opt/pico-sdk/src/rp2_common/pico_standard_link/binary_info.c.obj
 .rodata.__bi_81
                0x10007d38        0xc CMakeFiles/hello_usb.dir/opt/pico-sdk/src/rp2_common/pico_standard_link/binary_info.c.obj
 .rodata.str1.4
                0x10007d44       0x88 CMakeFiles/hello_usb.dir/opt/pico-sdk/src/rp2_common/pico_standard_link/binary_info.c.obj
 .rodata.crlf_str.5809
                0x10007dcc        0x2 CMakeFiles/hello_usb.dir/opt/pico-sdk/src/rp2_common/pico_stdio/stdio.c.obj
 *fill*         0x10007dce        0x2 
 .rodata._resetd_driver
                0x10007dd0       0x18 CMakeFiles/hello_usb.dir/opt/pico-sdk/src/rp2_common/pico_stdio_usb/reset_interface.c.obj
 .rodata.__bi_93.7101
                0x10007de8        0xc CMakeFiles/hello_usb.dir/opt/pico-sdk/src/rp2_common/pico_stdio_usb/stdio_usb.c.obj
 .rodata.__func__.5371
                0x10007df4       0x15 CMakeFiles/hello_usb.dir/opt/pico-sdk/src/rp2_common/pico_stdio_usb/stdio_usb.c.obj
 .rodata.stdio_usb_init.str1.4
                0x10007e09       0x54 CMakeFiles/hello_usb.dir/opt/pico-sdk/src/rp2_common/pico_stdio_usb/stdio_usb.c.obj
 *fill*         0x10007e09        0x3 
 .rodata.str1.4
                0x10007e0c       0x13 CMakeFiles/hello_usb.dir/opt/pico-sdk/src/rp2_common/pico_stdio_usb/stdio_usb.c.obj
 *fill*         0x10007e1f        0x1 
 .rodata.str1.4
                0x10007e20       0x2a CMakeFiles/hello_usb.dir/opt/pico-sdk/src/rp2_common/pico_stdio_usb/stdio_usb_descriptors.c.obj
 *fill*         0x10007e4a        0x2 
 .rodata.usbd_desc_cfg
                0x10007e4c       0x54 CMakeFiles/hello_usb.dir/opt/pico-sdk/src/rp2_common/pico_stdio_usb/stdio_usb_descriptors.c.obj
 .rodata.usbd_desc_device
                0x10007ea0       0x12 CMakeFiles/hello_usb.dir/opt/pico-sdk/src/rp2_common/pico_stdio_usb/stdio_usb_descriptors.c.obj
 *fill*         0x10007eb2        0x2 
 .rodata.usbd_desc_str
                0x10007eb4       0x18 CMakeFiles/hello_usb.dir/opt/pico-sdk/src/rp2_common/pico_stdio_usb/stdio_usb_descriptors.c.obj
 .rodata.__func__.6806
                0x10007ecc       0x13 CMakeFiles/hello_usb.dir/opt/pico-sdk/lib/tinyusb/src/portable/raspberrypi/rp2040/dcd_rp2040.c.obj
 *fill*         0x10007edf        0x1 
 .rodata.__func__.6837
                0x10007ee0       0x16 CMakeFiles/hello_usb.dir/opt/pico-sdk/lib/tinyusb/src/portable/raspberrypi/rp2040/dcd_rp2040.c.obj
 *fill*         0x10007ef6        0x2 
 .rodata.__func__.6858
                0x10007ef8       0x13 CMakeFiles/hello_usb.dir/opt/pico-sdk/lib/tinyusb/src/portable/raspberrypi/rp2040/dcd_rp2040.c.obj
 *fill*         0x10007f0b        0x1 
 .rodata.__func__.6879
                0x10007f0c        0x9 CMakeFiles/hello_usb.dir/opt/pico-sdk/lib/tinyusb/src/portable/raspberrypi/rp2040/dcd_rp2040.c.obj
 *fill*         0x10007f15        0x3 
 .rodata.__func__.6883
                0x10007f18        0xf CMakeFiles/hello_usb.dir/opt/pico-sdk/lib/tinyusb/src/portable/raspberrypi/rp2040/dcd_rp2040.c.obj
 *fill*         0x10007f27        0x1 
 .rodata.__func__.6892
                0x10007f28       0x10 CMakeFiles/hello_usb.dir/opt/pico-sdk/lib/tinyusb/src/portable/raspberrypi/rp2040/dcd_rp2040.c.obj
 .rodata.__func__.6904
                0x10007f38        0xc CMakeFiles/hello_usb.dir/opt/pico-sdk/lib/tinyusb/src/portable/raspberrypi/rp2040/dcd_rp2040.c.obj
 .rodata.__func__.6909
                0x10007f44       0x1a CMakeFiles/hello_usb.dir/opt/pico-sdk/lib/tinyusb/src/portable/raspberrypi/rp2040/dcd_rp2040.c.obj
 *fill*         0x10007f5e        0x2 
 .rodata.__func__.6914
                0x10007f60        0xe CMakeFiles/hello_usb.dir/opt/pico-sdk/lib/tinyusb/src/portable/raspberrypi/rp2040/dcd_rp2040.c.obj
 *fill*         0x10007f6e        0x2 
 .rodata.__func__.6921
                0x10007f70        0xe CMakeFiles/hello_usb.dir/opt/pico-sdk/lib/tinyusb/src/portable/raspberrypi/rp2040/dcd_rp2040.c.obj
 *fill*         0x10007f7e        0x2 
 .rodata.__func__.6926
                0x10007f80        0xf CMakeFiles/hello_usb.dir/opt/pico-sdk/lib/tinyusb/src/portable/raspberrypi/rp2040/dcd_rp2040.c.obj
 *fill*         0x10007f8f        0x1 
 .rodata.__func__.6931
                0x10007f90       0x15 CMakeFiles/hello_usb.dir/opt/pico-sdk/lib/tinyusb/src/portable/raspberrypi/rp2040/dcd_rp2040.c.obj
 *fill*         0x10007fa5        0x3 
 .rodata._hw_endpoint_alloc.str1.4
                0x10007fa8       0xa9 CMakeFiles/hello_usb.dir/opt/pico-sdk/lib/tinyusb/src/portable/raspberrypi/rp2040/dcd_rp2040.c.obj
 *fill*         0x10008051        0x3 
 .rodata._hw_endpoint_init.str1.4
                0x10008054       0x28 CMakeFiles/hello_usb.dir/opt/pico-sdk/lib/tinyusb/src/portable/raspberrypi/rp2040/dcd_rp2040.c.obj
 .rodata._hw_endpoint_stall.str1.4
                0x1000807c        0xd CMakeFiles/hello_usb.dir/opt/pico-sdk/lib/tinyusb/src/portable/raspberrypi/rp2040/dcd_rp2040.c.obj
 *fill*         0x10008089        0x3 
 .rodata.dcd_int_enable.str1.4
                0x1000808c        0xc CMakeFiles/hello_usb.dir/opt/pico-sdk/lib/tinyusb/src/portable/raspberrypi/rp2040/dcd_rp2040.c.obj
 .rodata.dcd_rp2040_irq.str1.4
                0x10008098       0x14 CMakeFiles/hello_usb.dir/opt/pico-sdk/lib/tinyusb/src/portable/raspberrypi/rp2040/dcd_rp2040.c.obj
 .rodata.hw_handle_buff_status.str1.4
                0x100080ac        0xb CMakeFiles/hello_usb.dir/opt/pico-sdk/lib/tinyusb/src/portable/raspberrypi/rp2040/dcd_rp2040.c.obj
 *fill*         0x100080b7        0x1 
 .rodata.__func__.6585
                0x100080b8       0x17 CMakeFiles/hello_usb.dir/opt/pico-sdk/lib/tinyusb/src/portable/raspberrypi/rp2040/rp2040_usb.c.obj
 *fill*         0x100080cf        0x1 
 .rodata.__func__.6596
                0x100080d0       0x12 CMakeFiles/hello_usb.dir/opt/pico-sdk/lib/tinyusb/src/portable/raspberrypi/rp2040/rp2040_usb.c.obj
 *fill*         0x100080e2        0x2 
 .rodata._hw_endpoint_buffer_control_update32.str1.4
                0x100080e4       0x1f CMakeFiles/hello_usb.dir/opt/pico-sdk/lib/tinyusb/src/portable/raspberrypi/rp2040/rp2040_usb.c.obj
 *fill*         0x10008103        0x1 
 .rodata._hw_endpoint_xfer.str1.4
                0x10008104        0xf CMakeFiles/hello_usb.dir/opt/pico-sdk/lib/tinyusb/src/portable/raspberrypi/rp2040/rp2040_usb.c.obj
 *fill*         0x10008113        0x1 
 .rodata._hw_endpoint_xfer_continue.str1.4
                0x10008114       0x50 CMakeFiles/hello_usb.dir/opt/pico-sdk/lib/tinyusb/src/portable/raspberrypi/rp2040/rp2040_usb.c.obj
 .rodata._hw_endpoint_xfer_sync.str1.4
                0x10008164       0x85 CMakeFiles/hello_usb.dir/opt/pico-sdk/lib/tinyusb/src/portable/raspberrypi/rp2040/rp2040_usb.c.obj
 *fill*         0x100081e9        0x3 
 .rodata.str1.4
                0x100081ec        0x7 CMakeFiles/hello_usb.dir/opt/pico-sdk/lib/tinyusb/src/portable/raspberrypi/rp2040/rp2040_usb.c.obj
 *fill*         0x100081f3        0x1 
 .rodata.process_get_descriptor
                0x100081f4       0x40 CMakeFiles/hello_usb.dir/opt/pico-sdk/lib/tinyusb/src/device/usbd.c.obj
 .rodata.process_control_request
                0x10008234       0x28 CMakeFiles/hello_usb.dir/opt/pico-sdk/lib/tinyusb/src/device/usbd.c.obj
 .rodata.tud_task
                0x1000825c       0x24 CMakeFiles/hello_usb.dir/opt/pico-sdk/lib/tinyusb/src/device/usbd.c.obj
 .rodata.__func__.6459
                0x10008280       0x10 CMakeFiles/hello_usb.dir/opt/pico-sdk/lib/tinyusb/src/device/usbd.c.obj
 .rodata.__func__.7252
                0x10008290        0x9 CMakeFiles/hello_usb.dir/opt/pico-sdk/lib/tinyusb/src/device/usbd.c.obj
 *fill*         0x10008299        0x3 
 .rodata.__func__.7273
                0x1000829c       0x18 CMakeFiles/hello_usb.dir/opt/pico-sdk/lib/tinyusb/src/device/usbd.c.obj
 .rodata.__func__.7311
                0x100082b4       0x13 CMakeFiles/hello_usb.dir/opt/pico-sdk/lib/tinyusb/src/device/usbd.c.obj
 *fill*         0x100082c7        0x1 
 .rodata.__func__.7354
                0x100082c8       0x17 CMakeFiles/hello_usb.dir/opt/pico-sdk/lib/tinyusb/src/device/usbd.c.obj
 *fill*         0x100082df        0x1 
 .rodata.__func__.7408
                0x100082e0       0x14 CMakeFiles/hello_usb.dir/opt/pico-sdk/lib/tinyusb/src/device/usbd.c.obj
 .rodata.__func__.7424
                0x100082f4        0xf CMakeFiles/hello_usb.dir/opt/pico-sdk/lib/tinyusb/src/device/usbd.c.obj
 *fill*         0x10008303        0x1 
 .rodata.__func__.7452
                0x10008304        0xf CMakeFiles/hello_usb.dir/opt/pico-sdk/lib/tinyusb/src/device/usbd.c.obj
 *fill*         0x10008313        0x1 
 .rodata._usbd_driver
                0x10008314       0x18 CMakeFiles/hello_usb.dir/opt/pico-sdk/lib/tinyusb/src/device/usbd.c.obj
 .rodata.process_set_config.str1.4
                0x1000832c       0x17 CMakeFiles/hello_usb.dir/opt/pico-sdk/lib/tinyusb/src/device/usbd.c.obj
 *fill*         0x10008343        0x1 
 .rodata.__func__.7165
                0x10008344       0x11 CMakeFiles/hello_usb.dir/opt/pico-sdk/lib/tinyusb/src/device/usbd_control.c.obj
 *fill*         0x10008355        0x3 
 .rodata.__func__.7192
                0x10008358       0x15 CMakeFiles/hello_usb.dir/opt/pico-sdk/lib/tinyusb/src/device/usbd_control.c.obj
 .rodata.tud_control_xfer.str1.4
                0x1000836d       0x17 CMakeFiles/hello_usb.dir/opt/pico-sdk/lib/tinyusb/src/device/usbd_control.c.obj
 *fill*         0x1000836d        0x3 
 .rodata.__func__.7104
                0x10008370       0x16 CMakeFiles/hello_usb.dir/opt/pico-sdk/lib/tinyusb/src/class/cdc/cdc_device.c.obj
 *fill*         0x10008386        0x2 
 .rodata.__func__.7137
                0x10008388        0xa CMakeFiles/hello_usb.dir/opt/pico-sdk/lib/tinyusb/src/class/cdc/cdc_device.c.obj
 *fill*         0x10008392        0x2 
 .rodata.__func__.7171
                0x10008394        0xd CMakeFiles/hello_usb.dir/opt/pico-sdk/lib/tinyusb/src/class/cdc/cdc_device.c.obj
 .rodata.tud_cdc_n_write_flush.str1.4
                0x100083a1       0x17 CMakeFiles/hello_usb.dir/opt/pico-sdk/lib/tinyusb/src/class/cdc/cdc_device.c.obj
 *fill*         0x100083a1        0x3 
 .rodata.__func__.7041
                0x100083a4        0xa CMakeFiles/hello_usb.dir/opt/pico-sdk/lib/tinyusb/src/tusb.c.obj
 .rodata.tusb_init.str1.4
                0x100083ae       0x17 CMakeFiles/hello_usb.dir/opt/pico-sdk/lib/tinyusb/src/tusb.c.obj
 *fill*         0x100083ae        0x2 
 .rodata.__func__.4247
                0x100083b0       0x20 CMakeFiles/hello_usb.dir/opt/pico-sdk/src/rp2_common/pico_unique_id/unique_id.c.obj
 .rodata.pico_get_unique_board_id_string.str1.4
                0x100083d0       0x40 CMakeFiles/hello_usb.dir/opt/pico-sdk/src/rp2_common/pico_unique_id/unique_id.c.obj
 .rodata.__func__.4388
                0x10008410        0xd CMakeFiles/hello_usb.dir/opt/pico-sdk/src/rp2_common/hardware_flash/flash.c.obj
 *fill*         0x1000841d        0x3 
 .rodata.str1.4
                0x10008420      0x14c CMakeFiles/hello_usb.dir/opt/pico-sdk/src/rp2_common/hardware_flash/flash.c.obj
                                0x14a (size before relaxing)
                0x1000856c                . = ALIGN (0x4)
 *(SORT_BY_ALIGNMENT(SORT_BY_NAME(.flashdata*)))
                0x1000856c                . = ALIGN (0x4)

.rel.dyn        0x1000856c        0x0
 .rel.iplt      0x1000856c        0x0 /usr/lib/gcc/arm-none-eabi/7.3.1/thumb/v6-m/crtbegin.o

.ARM.extab
 *(.ARM.extab* .gnu.linkonce.armextab.*)
                0x1000856c                __exidx_start = .

.ARM.exidx
 *(.ARM.exidx* .gnu.linkonce.armexidx.*)
                0x1000856c                __exidx_end = .
                0x1000856c                . = ALIGN (0x4)
                0x1000856c                __binary_info_start = .

.binary_info    0x1000856c       0x24
 *(.binary_info.keep.*)
 .binary_info.keep.__bi_ptr22
                0x1000856c        0x4 CMakeFiles/hello_usb.dir/opt/pico-sdk/src/rp2_common/pico_standard_link/binary_info.c.obj
 .binary_info.keep.__bi_ptr30
                0x10008570        0x4 CMakeFiles/hello_usb.dir/opt/pico-sdk/src/rp2_common/pico_standard_link/binary_info.c.obj
 .binary_info.keep.__bi_ptr38
                0x10008574        0x4 CMakeFiles/hello_usb.dir/opt/pico-sdk/src/rp2_common/pico_standard_link/binary_info.c.obj
 .binary_info.keep.__bi_ptr44
                0x10008578        0x4 CMakeFiles/hello_usb.dir/opt/pico-sdk/src/rp2_common/pico_standard_link/binary_info.c.obj
 .binary_info.keep.__bi_ptr50
                0x1000857c        0x4 CMakeFiles/hello_usb.dir/opt/pico-sdk/src/rp2_common/pico_standard_link/binary_info.c.obj
 .binary_info.keep.__bi_ptr69
                0x10008580        0x4 CMakeFiles/hello_usb.dir/opt/pico-sdk/src/rp2_common/pico_standard_link/binary_info.c.obj
 .binary_info.keep.__bi_ptr75
                0x10008584        0x4 CMakeFiles/hello_usb.dir/opt/pico-sdk/src/rp2_common/pico_standard_link/binary_info.c.obj
 .binary_info.keep.__bi_ptr81
                0x10008588        0x4 CMakeFiles/hello_usb.dir/opt/pico-sdk/src/rp2_common/pico_standard_link/binary_info.c.obj
 *(.binary_info.*)
 .binary_info.__bi_ptr93
                0x1000858c        0x4 CMakeFiles/hello_usb.dir/opt/pico-sdk/src/rp2_common/pico_stdio_usb/stdio_usb.c.obj
                0x10008590                __binary_info_end = .
                0x10008590                . = ALIGN (0x4)
                0x10008590                __etext = .

.ram_vector_table
                0x20000000       0xc0
 *(.ram_vector_table)
 .ram_vector_table
                0x20000000       0xc0 CMakeFiles/hello_usb.dir/opt/pico-sdk/src/rp2_common/pico_runtime/runtime.c.obj
                0x20000000                ram_vector_table

.data           0x200000c0      0x4f0 load address 0x10008590
                0x200000c0                __data_start__ = .
 *(vtable)
 *(.time_critical*)
 .time_critical.mutex_enter_blocking
                0x200000c0       0x94 CMakeFiles/hello_usb.dir/opt/pico-sdk/src/common/pico_sync/mutex.c.obj
                0x200000c0                mutex_enter_blocking
 .time_critical.mutex_try_enter
                0x20000154       0x5a CMakeFiles/hello_usb.dir/opt/pico-sdk/src/common/pico_sync/mutex.c.obj
                0x20000154                mutex_try_enter
 *fill*         0x200001ae        0x2 
 .time_critical.mutex_enter_block_until
                0x200001b0       0x8c CMakeFiles/hello_usb.dir/opt/pico-sdk/src/common/pico_sync/mutex.c.obj
                0x200001b0                mutex_enter_block_until
 .time_critical.mutex_enter_timeout_ms
                0x2000023c       0x6c CMakeFiles/hello_usb.dir/opt/pico-sdk/src/common/pico_sync/mutex.c.obj
                0x2000023c                mutex_enter_timeout_ms
 .time_critical.mutex_exit
                0x200002a8       0x94 CMakeFiles/hello_usb.dir/opt/pico-sdk/src/common/pico_sync/mutex.c.obj
                0x200002a8                mutex_exit
 .time_critical.flash_init_boot2_copyout
                0x2000033c       0x30 CMakeFiles/hello_usb.dir/opt/pico-sdk/src/rp2_common/hardware_flash/flash.c.obj
 .time_critical.flash_enable_xip_via_boot2
                0x2000036c       0x10 CMakeFiles/hello_usb.dir/opt/pico-sdk/src/rp2_common/hardware_flash/flash.c.obj
 .time_critical.flash_cs_force
                0x2000037c       0x28 CMakeFiles/hello_usb.dir/opt/pico-sdk/src/rp2_common/hardware_flash/flash.c.obj
 .time_critical.flash_do_cmd
                0x200003a4       0xc0 CMakeFiles/hello_usb.dir/opt/pico-sdk/src/rp2_common/hardware_flash/flash.c.obj
                0x200003a4                flash_do_cmd
 *(.text*)
 .text          0x20000464        0x4 /usr/lib/gcc/arm-none-eabi/7.3.1/thumb/v6-m/libgcc.a(_dvmd_tls.o)
                0x20000464                __aeabi_ldiv0
                0x20000464                __aeabi_idiv0
 .text.__stub   0x20000468       0x50 linker stubs
                0x200004b8                . = ALIGN (0x4)
 *(.rodata*)
                0x200004b8                . = ALIGN (0x4)
 *(.data*)
 .data.striped_spin_lock_num
                0x200004b8        0x1 CMakeFiles/hello_usb.dir/opt/pico-sdk/src/rp2_common/hardware_sync/sync.c.obj
 *fill*         0x200004b9        0x3 
 .data.default_alarm_pool
                0x200004bc       0x18 CMakeFiles/hello_usb.dir/opt/pico-sdk/src/common/pico_time/time.c.obj
 .data.default_alarm_pool_heap
                0x200004d4       0x10 CMakeFiles/hello_usb.dir/opt/pico-sdk/src/common/pico_time/time.c.obj
 .data          0x200004e4       0x48 CMakeFiles/hello_usb.dir/opt/pico-sdk/src/rp2_common/hardware_irq/irq_handler_chain.S.obj
                0x200004e4                irq_handler_chain_slots
                0x20000514                irq_handler_chain_first_slot
                0x2000051e                irq_handler_chain_remove_tail
 *fill*         0x2000052c        0x4 
 .data.aeabi_bits_funcs
                0x20000530       0x10 CMakeFiles/hello_usb.dir/opt/pico-sdk/src/rp2_common/pico_bit_ops/bit_ops_aeabi.S.obj
                0x20000530                aeabi_bits_funcs
                0x20000540                aeabi_bits_funcs_end
 .data.aeabi_mem_funcs
                0x20000540       0x10 CMakeFiles/hello_usb.dir/opt/pico-sdk/src/rp2_common/pico_mem_ops/mem_ops_aeabi.S.obj
                0x20000540                aeabi_mem_funcs
                0x20000550                aeabi_mem_funcs_end
 .data.stdio_usb
                0x20000550       0x14 CMakeFiles/hello_usb.dir/opt/pico-sdk/src/rp2_common/pico_stdio_usb/stdio_usb.c.obj
                0x20000550                stdio_usb
 .data.ep_dir_string
                0x20000564        0x8 CMakeFiles/hello_usb.dir/opt/pico-sdk/lib/tinyusb/src/portable/raspberrypi/rp2040/rp2040_usb.c.obj
                0x20000564                ep_dir_string
 .data._usbd_qdef
                0x2000056c       0x24 CMakeFiles/hello_usb.dir/opt/pico-sdk/lib/tinyusb/src/device/usbd.c.obj
                0x2000056c                _usbd_qdef
                0x20000590                . = ALIGN (0x4)
 *(.after_data.*)
                0x20000590                . = ALIGN (0x4)
                0x20000590                PROVIDE (__mutex_array_start = .)
 *(SORT_BY_NAME(.mutex_array.*))
 *(.mutex_array)
 .mutex_array   0x20000590        0x8 CMakeFiles/hello_usb.dir/opt/pico-sdk/src/rp2_common/pico_stdio/stdio.c.obj
                0x20000598                PROVIDE (__mutex_array_end = .)
                0x20000598                . = ALIGN (0x4)
                0x20000598                PROVIDE (__preinit_array_start = .)
 *(SORT_BY_NAME(.preinit_array.*))
 .preinit_array.00001
                0x20000598        0x4 CMakeFiles/hello_usb.dir/opt/pico-sdk/src/rp2_common/pico_mem_ops/mem_ops_aeabi.S.obj
 .preinit_array.00010
                0x2000059c        0x4 CMakeFiles/hello_usb.dir/opt/pico-sdk/src/rp2_common/pico_bit_ops/bit_ops_aeabi.S.obj
 .preinit_array.00020
                0x200005a0        0x4 CMakeFiles/hello_usb.dir/opt/pico-sdk/src/rp2_common/pico_double/double_aeabi.S.obj
 .preinit_array.00020
                0x200005a4        0x4 CMakeFiles/hello_usb.dir/opt/pico-sdk/src/rp2_common/pico_float/float_aeabi.S.obj
 *(.preinit_array)
                0x200005a8                PROVIDE (__preinit_array_end = .)
                0x200005a8                . = ALIGN (0x4)
                0x200005a8                PROVIDE (__init_array_start = .)
 *(SORT_BY_NAME(.init_array.*))
 *(.init_array)
 .init_array    0x200005a8        0x4 /usr/lib/gcc/arm-none-eabi/7.3.1/thumb/v6-m/crtbegin.o
 .init_array    0x200005ac        0x4 CMakeFiles/hello_usb.dir/opt/pico-sdk/src/rp2_common/pico_unique_id/unique_id.c.obj
                0x200005b0                PROVIDE (__init_array_end = .)
                0x200005b0                . = ALIGN (0x4)
                0x200005b0                PROVIDE (__fini_array_start = .)
 *(SORT_BY_NAME(.fini_array.*))
 *(.fini_array)
                0x200005b0                PROVIDE (__fini_array_end = .)
 *(.jcr)
                0x200005b0                . = ALIGN (0x4)
                0x200005b0                __data_end__ = .

.tm_clone_table
                0x200005b0        0x0 load address 0x10008a80
 .tm_clone_table
                0x200005b0        0x0 /usr/lib/gcc/arm-none-eabi/7.3.1/thumb/v6-m/crtbegin.o
 .tm_clone_table
                0x200005b0        0x0 /usr/lib/gcc/arm-none-eabi/7.3.1/thumb/v6-m/crtend.o

.igot.plt       0x200005b0        0x0 load address 0x10008a80
 .igot.plt      0x200005b0        0x0 /usr/lib/gcc/arm-none-eabi/7.3.1/thumb/v6-m/crtbegin.o

.uninitialized_data
                0x200005b0        0x0 load address 0x10008a80
                0x200005b0                . = ALIGN (0x4)
 *(.uninitialized_data*)

.scratch_x      0x20040000        0x0 load address 0x10008a80
                0x20040000                __scratch_x_start__ = .
 *(.scratch_x.*)
                0x20040000                . = ALIGN (0x4)
                0x20040000                __scratch_x_end__ = .
                0x10008a80                __scratch_x_source__ = LOADADDR (.scratch_x)

.scratch_y      0x20041000        0x0 load address 0x10008a80
                0x20041000                __scratch_y_start__ = .
 *(.scratch_y.*)
                0x20041000                . = ALIGN (0x4)
                0x20041000                __scratch_y_end__ = .
                0x10008a80                __scratch_y_source__ = LOADADDR (.scratch_y)

.bss            0x200005b0      0xd60
                0x200005b0                . = ALIGN (0x4)
                0x200005b0                __bss_start__ = .
 *(SORT_BY_ALIGNMENT(SORT_BY_NAME(.bss*)))
 .bss.default_alarm_pool_entries
                0x200005b0      0x100 CMakeFiles/hello_usb.dir/opt/pico-sdk/src/common/pico_time/time.c.obj
 .bss.last_avail_time.7080
                0x200006b0        0x8 CMakeFiles/hello_usb.dir/opt/pico-sdk/src/rp2_common/pico_stdio_usb/stdio_usb.c.obj
 .bss           0x200006b8       0x1c /usr/lib/gcc/arm-none-eabi/7.3.1/thumb/v6-m/crtbegin.o
 .bss._app_driver
                0x200006d4        0x4 CMakeFiles/hello_usb.dir/opt/pico-sdk/lib/tinyusb/src/device/usbd.c.obj
 .bss._cdcd_itf
                0x200006d8      0x2d8 CMakeFiles/hello_usb.dir/opt/pico-sdk/lib/tinyusb/src/class/cdc/cdc_device.c.obj
 .bss._ctrl_xfer
                0x200009b0       0x14 CMakeFiles/hello_usb.dir/opt/pico-sdk/lib/tinyusb/src/device/usbd_control.c.obj
 .bss._ubsd_mutexdef
                0x200009c4        0x8 CMakeFiles/hello_usb.dir/opt/pico-sdk/lib/tinyusb/src/device/usbd.c.obj
 .bss._usbd_ctrl_buf
                0x200009cc       0x40 CMakeFiles/hello_usb.dir/opt/pico-sdk/lib/tinyusb/src/device/usbd_control.c.obj
 .bss._usbd_dev
                0x20000a0c       0x37 CMakeFiles/hello_usb.dir/opt/pico-sdk/lib/tinyusb/src/device/usbd.c.obj
 *fill*         0x20000a43        0x1 
 .bss._usbd_mutex
                0x20000a44        0x4 CMakeFiles/hello_usb.dir/opt/pico-sdk/lib/tinyusb/src/device/usbd.c.obj
 .bss._usbd_q   0x20000a48        0x4 CMakeFiles/hello_usb.dir/opt/pico-sdk/lib/tinyusb/src/device/usbd.c.obj
 .bss.alarm_callbacks
                0x20000a4c       0x10 CMakeFiles/hello_usb.dir/opt/pico-sdk/src/rp2_common/hardware_timer/timer.c.obj
 .bss.boot2_copyout
                0x20000a5c      0x100 CMakeFiles/hello_usb.dir/opt/pico-sdk/src/rp2_common/hardware_flash/flash.c.obj
 .bss.claimed   0x20000b5c        0x4 CMakeFiles/hello_usb.dir/opt/pico-sdk/src/rp2_common/hardware_sync/sync.c.obj
 .bss.configured_freq
                0x20000b60       0x28 CMakeFiles/hello_usb.dir/opt/pico-sdk/src/rp2_common/hardware_clocks/clocks.c.obj
 .bss.default_alarm_pool_entry_ids_high
                0x20000b88       0x10 CMakeFiles/hello_usb.dir/opt/pico-sdk/src/common/pico_time/time.c.obj
 .bss.default_alarm_pool_heap_nodes
                0x20000b98       0x30 CMakeFiles/hello_usb.dir/opt/pico-sdk/src/common/pico_time/time.c.obj
 .bss.desc_str.6984
                0x20000bc8       0x28 CMakeFiles/hello_usb.dir/opt/pico-sdk/src/rp2_common/pico_stdio_usb/stdio_usb_descriptors.c.obj
 .bss.drivers   0x20000bf0        0x4 CMakeFiles/hello_usb.dir/opt/pico-sdk/src/rp2_common/pico_stdio/stdio.c.obj
 .bss.filter    0x20000bf4        0x4 CMakeFiles/hello_usb.dir/opt/pico-sdk/src/rp2_common/pico_stdio/stdio.c.obj
 .bss.hw_endpoints
                0x20000bf8      0x400 CMakeFiles/hello_usb.dir/opt/pico-sdk/lib/tinyusb/src/portable/raspberrypi/rp2040/dcd_rp2040.c.obj
 .bss.load_value
                0x20000ff8        0x4 CMakeFiles/hello_usb.dir/opt/pico-sdk/src/rp2_common/hardware_watchdog/watchdog.c.obj
 .bss.next_buffer_ptr
                0x20000ffc        0x4 CMakeFiles/hello_usb.dir/opt/pico-sdk/lib/tinyusb/src/portable/raspberrypi/rp2040/dcd_rp2040.c.obj
 .bss.pools     0x20001000       0x10 CMakeFiles/hello_usb.dir/opt/pico-sdk/src/common/pico_time/time.c.obj
 .bss.retrieved_id
                0x20001010        0x8 CMakeFiles/hello_usb.dir/opt/pico-sdk/src/rp2_common/pico_unique_id/unique_id.c.obj
 .bss.sleep_notifier
                0x20001018        0x4 CMakeFiles/hello_usb.dir/opt/pico-sdk/src/common/pico_time/time.c.obj
 .bss.stdio_usb_mutex
                0x2000101c        0x8 CMakeFiles/hello_usb.dir/opt/pico-sdk/src/rp2_common/pico_stdio_usb/stdio_usb.c.obj
 .bss.target_hi
                0x20001024       0x10 CMakeFiles/hello_usb.dir/opt/pico-sdk/src/rp2_common/hardware_timer/timer.c.obj
 .bss.usbd_serial_str
                0x20001034       0x11 CMakeFiles/hello_usb.dir/opt/pico-sdk/src/rp2_common/pico_stdio_usb/stdio_usb_descriptors.c.obj
 .bss._app_driver_count
                0x20001045        0x1 CMakeFiles/hello_usb.dir/opt/pico-sdk/lib/tinyusb/src/device/usbd.c.obj
 .bss._usbd_initialized
                0x20001046        0x1 CMakeFiles/hello_usb.dir/opt/pico-sdk/lib/tinyusb/src/device/usbd.c.obj
 .bss.boot2_copyout_valid
                0x20001047        0x1 CMakeFiles/hello_usb.dir/opt/pico-sdk/src/rp2_common/hardware_flash/flash.c.obj
 .bss.claimed   0x20001048        0x1 CMakeFiles/hello_usb.dir/opt/pico-sdk/src/rp2_common/hardware_timer/timer.c.obj
 .bss.irq_hander_chain_free_slot_head
                0x20001049        0x1 CMakeFiles/hello_usb.dir/opt/pico-sdk/src/rp2_common/hardware_irq/irq.c.obj
 .bss.itf_num   0x2000104a        0x1 CMakeFiles/hello_usb.dir/opt/pico-sdk/src/rp2_common/pico_stdio_usb/reset_interface.c.obj
 .bss.timer_callbacks_pending
                0x2000104b        0x1 CMakeFiles/hello_usb.dir/opt/pico-sdk/src/rp2_common/hardware_timer/timer.c.obj
 *(COMMON)
 COMMON         0x2000104c      0x100 CMakeFiles/hello_usb.dir/opt/pico-sdk/src/rp2_common/pico_double/double_init_rom.c.obj
                0x2000104c                sd_table
 COMMON         0x2000114c      0x104 CMakeFiles/hello_usb.dir/opt/pico-sdk/src/rp2_common/pico_float/float_init_rom.c.obj
                0x2000114c                sf_table
                0x2000124c                sf_clz_func
 COMMON         0x20001250       0xc0 CMakeFiles/hello_usb.dir/opt/pico-sdk/lib/tinyusb/src/device/usbd.c.obj
                0x20001250                _usbd_qdef_buf
                0x20001310                . = ALIGN (0x4)
                0x20001310                __bss_end__ = .

.heap           0x20001310      0x800
                0x20001310                __end__ = .
                0x20001310                end = __end__
 *(.heap*)
 .heap          0x20001310      0x800 CMakeFiles/hello_usb.dir/opt/pico-sdk/src/rp2_common/pico_standard_link/crt0.S.obj
                0x20001b10                __HeapLimit = .

.stack1_dummy   0x20040000        0x0
 *(.stack1*)

.stack_dummy    0x20041000      0x800
 *(.stack*)
 .stack         0x20041000      0x800 CMakeFiles/hello_usb.dir/opt/pico-sdk/src/rp2_common/pico_standard_link/crt0.S.obj

.flash_end      0x10008a80        0x0
                0x10008a80                __flash_binary_end = .
                0x20040000                __StackLimit = (ORIGIN (RAM) + LENGTH (RAM))
                0x20041000                __StackOneTop = (ORIGIN (SCRATCH_X) + LENGTH (SCRATCH_X))
                0x20042000                __StackTop = (ORIGIN (SCRATCH_Y) + LENGTH (SCRATCH_Y))
                0x20041000                __StackOneBottom = (__StackOneTop - SIZEOF (.stack1_dummy))
                0x20041800                __StackBottom = (__StackTop - SIZEOF (.stack_dummy))
                0x20042000                PROVIDE (__stack = __StackTop)
                0x00000001                ASSERT ((__StackLimit >= __HeapLimit), region RAM overflowed)
                0x00000001                ASSERT (((__binary_info_header_end - __logical_binary_start) <= 0x100), Binary info must be in first 256 bytes of the binary)
LOAD CMakeFiles/hello_usb.dir/hello_usb.c.obj
LOAD CMakeFiles/hello_usb.dir/opt/pico-sdk/src/rp2_common/pico_stdlib/stdlib.c.obj
LOAD CMakeFiles/hello_usb.dir/opt/pico-sdk/src/rp2_common/hardware_gpio/gpio.c.obj
LOAD CMakeFiles/hello_usb.dir/opt/pico-sdk/src/rp2_common/hardware_claim/claim.c.obj
LOAD CMakeFiles/hello_usb.dir/opt/pico-sdk/src/rp2_common/pico_platform/platform.c.obj
LOAD CMakeFiles/hello_usb.dir/opt/pico-sdk/src/rp2_common/hardware_sync/sync.c.obj
LOAD CMakeFiles/hello_usb.dir/opt/pico-sdk/src/rp2_common/hardware_uart/uart.c.obj
LOAD CMakeFiles/hello_usb.dir/opt/pico-sdk/src/rp2_common/hardware_divider/divider.S.obj
LOAD CMakeFiles/hello_usb.dir/opt/pico-sdk/src/common/pico_time/time.c.obj
LOAD CMakeFiles/hello_usb.dir/opt/pico-sdk/src/common/pico_time/timeout_helper.c.obj
LOAD CMakeFiles/hello_usb.dir/opt/pico-sdk/src/rp2_common/hardware_timer/timer.c.obj
LOAD CMakeFiles/hello_usb.dir/opt/pico-sdk/src/common/pico_sync/sem.c.obj
LOAD CMakeFiles/hello_usb.dir/opt/pico-sdk/src/common/pico_sync/lock_core.c.obj
LOAD CMakeFiles/hello_usb.dir/opt/pico-sdk/src/common/pico_sync/mutex.c.obj
LOAD CMakeFiles/hello_usb.dir/opt/pico-sdk/src/common/pico_sync/critical_section.c.obj
LOAD CMakeFiles/hello_usb.dir/opt/pico-sdk/src/common/pico_util/datetime.c.obj
LOAD CMakeFiles/hello_usb.dir/opt/pico-sdk/src/common/pico_util/pheap.c.obj
LOAD CMakeFiles/hello_usb.dir/opt/pico-sdk/src/common/pico_util/queue.c.obj
LOAD CMakeFiles/hello_usb.dir/opt/pico-sdk/src/rp2_common/pico_runtime/runtime.c.obj
LOAD CMakeFiles/hello_usb.dir/opt/pico-sdk/src/rp2_common/hardware_clocks/clocks.c.obj
LOAD CMakeFiles/hello_usb.dir/opt/pico-sdk/src/rp2_common/hardware_irq/irq.c.obj
LOAD CMakeFiles/hello_usb.dir/opt/pico-sdk/src/rp2_common/hardware_irq/irq_handler_chain.S.obj
LOAD CMakeFiles/hello_usb.dir/opt/pico-sdk/src/rp2_common/hardware_pll/pll.c.obj
LOAD CMakeFiles/hello_usb.dir/opt/pico-sdk/src/rp2_common/hardware_vreg/vreg.c.obj
LOAD CMakeFiles/hello_usb.dir/opt/pico-sdk/src/rp2_common/hardware_watchdog/watchdog.c.obj
LOAD CMakeFiles/hello_usb.dir/opt/pico-sdk/src/rp2_common/hardware_xosc/xosc.c.obj
LOAD CMakeFiles/hello_usb.dir/opt/pico-sdk/src/rp2_common/pico_printf/printf.c.obj
LOAD CMakeFiles/hello_usb.dir/opt/pico-sdk/src/rp2_common/pico_bit_ops/bit_ops_aeabi.S.obj
LOAD CMakeFiles/hello_usb.dir/opt/pico-sdk/src/rp2_common/pico_bootrom/bootrom.c.obj
LOAD CMakeFiles/hello_usb.dir/opt/pico-sdk/src/rp2_common/pico_divider/divider.S.obj
LOAD CMakeFiles/hello_usb.dir/opt/pico-sdk/src/rp2_common/pico_double/double_aeabi.S.obj
LOAD CMakeFiles/hello_usb.dir/opt/pico-sdk/src/rp2_common/pico_double/double_init_rom.c.obj
LOAD CMakeFiles/hello_usb.dir/opt/pico-sdk/src/rp2_common/pico_double/double_math.c.obj
LOAD CMakeFiles/hello_usb.dir/opt/pico-sdk/src/rp2_common/pico_double/double_v1_rom_shim.S.obj
LOAD CMakeFiles/hello_usb.dir/opt/pico-sdk/src/rp2_common/pico_int64_ops/pico_int64_ops_aeabi.S.obj
LOAD CMakeFiles/hello_usb.dir/opt/pico-sdk/src/rp2_common/pico_float/float_aeabi.S.obj
LOAD CMakeFiles/hello_usb.dir/opt/pico-sdk/src/rp2_common/pico_float/float_init_rom.c.obj
LOAD CMakeFiles/hello_usb.dir/opt/pico-sdk/src/rp2_common/pico_float/float_math.c.obj
LOAD CMakeFiles/hello_usb.dir/opt/pico-sdk/src/rp2_common/pico_float/float_v1_rom_shim.S.obj
LOAD CMakeFiles/hello_usb.dir/opt/pico-sdk/src/rp2_common/pico_malloc/pico_malloc.c.obj
LOAD CMakeFiles/hello_usb.dir/opt/pico-sdk/src/rp2_common/pico_mem_ops/mem_ops_aeabi.S.obj
LOAD CMakeFiles/hello_usb.dir/opt/pico-sdk/src/rp2_common/pico_standard_link/crt0.S.obj
LOAD CMakeFiles/hello_usb.dir/opt/pico-sdk/src/rp2_common/pico_standard_link/new_delete.cpp.obj
LOAD CMakeFiles/hello_usb.dir/opt/pico-sdk/src/rp2_common/pico_standard_link/binary_info.c.obj
LOAD CMakeFiles/hello_usb.dir/opt/pico-sdk/src/rp2_common/pico_stdio/stdio.c.obj
LOAD CMakeFiles/hello_usb.dir/opt/pico-sdk/src/rp2_common/pico_stdio_usb/reset_interface.c.obj
LOAD CMakeFiles/hello_usb.dir/opt/pico-sdk/src/rp2_common/pico_stdio_usb/stdio_usb.c.obj
LOAD CMakeFiles/hello_usb.dir/opt/pico-sdk/src/rp2_common/pico_stdio_usb/stdio_usb_descriptors.c.obj
LOAD CMakeFiles/hello_usb.dir/opt/pico-sdk/lib/tinyusb/src/portable/raspberrypi/rp2040/dcd_rp2040.c.obj
LOAD CMakeFiles/hello_usb.dir/opt/pico-sdk/lib/tinyusb/src/portable/raspberrypi/rp2040/rp2040_usb.c.obj
LOAD CMakeFiles/hello_usb.dir/opt/pico-sdk/lib/tinyusb/src/device/usbd.c.obj
LOAD CMakeFiles/hello_usb.dir/opt/pico-sdk/lib/tinyusb/src/device/usbd_control.c.obj
LOAD CMakeFiles/hello_usb.dir/opt/pico-sdk/lib/tinyusb/src/class/audio/audio_device.c.obj
LOAD CMakeFiles/hello_usb.dir/opt/pico-sdk/lib/tinyusb/src/class/cdc/cdc_device.c.obj
LOAD CMakeFiles/hello_usb.dir/opt/pico-sdk/lib/tinyusb/src/class/dfu/dfu_device.c.obj
LOAD CMakeFiles/hello_usb.dir/opt/pico-sdk/lib/tinyusb/src/class/dfu/dfu_rt_device.c.obj
LOAD CMakeFiles/hello_usb.dir/opt/pico-sdk/lib/tinyusb/src/class/hid/hid_device.c.obj
LOAD CMakeFiles/hello_usb.dir/opt/pico-sdk/lib/tinyusb/src/class/midi/midi_device.c.obj
LOAD CMakeFiles/hello_usb.dir/opt/pico-sdk/lib/tinyusb/src/class/msc/msc_device.c.obj
LOAD CMakeFiles/hello_usb.dir/opt/pico-sdk/lib/tinyusb/src/class/net/net_device.c.obj
LOAD CMakeFiles/hello_usb.dir/opt/pico-sdk/lib/tinyusb/src/class/usbtmc/usbtmc_device.c.obj
LOAD CMakeFiles/hello_usb.dir/opt/pico-sdk/lib/tinyusb/src/class/vendor/vendor_device.c.obj
LOAD CMakeFiles/hello_usb.dir/opt/pico-sdk/lib/tinyusb/src/tusb.c.obj
LOAD CMakeFiles/hello_usb.dir/opt/pico-sdk/lib/tinyusb/src/common/tusb_fifo.c.obj
LOAD CMakeFiles/hello_usb.dir/opt/pico-sdk/src/rp2_common/pico_fix/rp2040_usb_device_enumeration/rp2040_usb_device_enumeration.c.obj
LOAD CMakeFiles/hello_usb.dir/opt/pico-sdk/src/rp2_common/pico_unique_id/unique_id.c.obj
LOAD CMakeFiles/hello_usb.dir/opt/pico-sdk/src/rp2_common/hardware_flash/flash.c.obj
LOAD /tmp/cc0cJ7pH.o
LOAD /usr/lib/gcc/arm-none-eabi/7.3.1/../../../arm-none-eabi/lib/thumb/v6-m/libstdc++.a
LOAD /usr/lib/gcc/arm-none-eabi/7.3.1/../../../arm-none-eabi/lib/thumb/v6-m/libm.a
START GROUP
LOAD /usr/lib/gcc/arm-none-eabi/7.3.1/thumb/v6-m/libgcc.a
LOAD /usr/lib/gcc/arm-none-eabi/7.3.1/../../../arm-none-eabi/lib/thumb/v6-m/libg.a
LOAD /usr/lib/gcc/arm-none-eabi/7.3.1/../../../arm-none-eabi/lib/thumb/v6-m/libc.a
END GROUP
START GROUP
LOAD /usr/lib/gcc/arm-none-eabi/7.3.1/thumb/v6-m/libgcc.a
LOAD /usr/lib/gcc/arm-none-eabi/7.3.1/../../../arm-none-eabi/lib/thumb/v6-m/libc.a
LOAD /usr/lib/gcc/arm-none-eabi/7.3.1/../../../arm-none-eabi/lib/thumb/v6-m/libnosys.a
END GROUP
LOAD /usr/lib/gcc/arm-none-eabi/7.3.1/thumb/v6-m/crtend.o
LOAD /usr/lib/gcc/arm-none-eabi/7.3.1/thumb/v6-m/crtn.o
OUTPUT(hello_usb.elf elf32-littlearm)

.ARM.attributes
                0x00000000       0x28
 .ARM.attributes
                0x00000000       0x1e /usr/lib/gcc/arm-none-eabi/7.3.1/thumb/v6-m/crti.o
 .ARM.attributes
                0x0000001e       0x2c /usr/lib/gcc/arm-none-eabi/7.3.1/thumb/v6-m/crtbegin.o
 .ARM.attributes
                0x0000004a       0x32 CMakeFiles/hello_usb.dir/hello_usb.c.obj
 .ARM.attributes
                0x0000007c       0x32 CMakeFiles/hello_usb.dir/opt/pico-sdk/src/rp2_common/hardware_claim/claim.c.obj
 .ARM.attributes
                0x000000ae       0x32 CMakeFiles/hello_usb.dir/opt/pico-sdk/src/rp2_common/pico_platform/platform.c.obj
 .ARM.attributes
                0x000000e0       0x32 CMakeFiles/hello_usb.dir/opt/pico-sdk/src/rp2_common/hardware_sync/sync.c.obj
 .ARM.attributes
                0x00000112       0x32 CMakeFiles/hello_usb.dir/opt/pico-sdk/src/common/pico_time/time.c.obj
 .ARM.attributes
                0x00000144       0x32 CMakeFiles/hello_usb.dir/opt/pico-sdk/src/rp2_common/hardware_timer/timer.c.obj
 .ARM.attributes
                0x00000176       0x32 CMakeFiles/hello_usb.dir/opt/pico-sdk/src/common/pico_sync/lock_core.c.obj
 .ARM.attributes
                0x000001a8       0x32 CMakeFiles/hello_usb.dir/opt/pico-sdk/src/common/pico_sync/mutex.c.obj
 .ARM.attributes
                0x000001da       0x32 CMakeFiles/hello_usb.dir/opt/pico-sdk/src/common/pico_sync/critical_section.c.obj
 .ARM.attributes
                0x0000020c       0x32 CMakeFiles/hello_usb.dir/opt/pico-sdk/src/common/pico_util/pheap.c.obj
 .ARM.attributes
                0x0000023e       0x32 CMakeFiles/hello_usb.dir/opt/pico-sdk/src/rp2_common/pico_runtime/runtime.c.obj
 .ARM.attributes
                0x00000270       0x32 CMakeFiles/hello_usb.dir/opt/pico-sdk/src/rp2_common/hardware_clocks/clocks.c.obj
 .ARM.attributes
                0x000002a2       0x32 CMakeFiles/hello_usb.dir/opt/pico-sdk/src/rp2_common/hardware_irq/irq.c.obj
 .ARM.attributes
                0x000002d4       0x22 CMakeFiles/hello_usb.dir/opt/pico-sdk/src/rp2_common/hardware_irq/irq_handler_chain.S.obj
 .ARM.attributes
                0x000002f6       0x32 CMakeFiles/hello_usb.dir/opt/pico-sdk/src/rp2_common/hardware_pll/pll.c.obj
 .ARM.attributes
                0x00000328       0x32 CMakeFiles/hello_usb.dir/opt/pico-sdk/src/rp2_common/hardware_watchdog/watchdog.c.obj
 .ARM.attributes
                0x0000035a       0x32 CMakeFiles/hello_usb.dir/opt/pico-sdk/src/rp2_common/hardware_xosc/xosc.c.obj
 .ARM.attributes
                0x0000038c       0x32 CMakeFiles/hello_usb.dir/opt/pico-sdk/src/rp2_common/pico_printf/printf.c.obj
 .ARM.attributes
                0x000003be       0x22 CMakeFiles/hello_usb.dir/opt/pico-sdk/src/rp2_common/pico_bit_ops/bit_ops_aeabi.S.obj
 .ARM.attributes
                0x000003e0       0x32 CMakeFiles/hello_usb.dir/opt/pico-sdk/src/rp2_common/pico_bootrom/bootrom.c.obj
 .ARM.attributes
                0x00000412       0x22 CMakeFiles/hello_usb.dir/opt/pico-sdk/src/rp2_common/pico_divider/divider.S.obj
 .ARM.attributes
                0x00000434       0x22 CMakeFiles/hello_usb.dir/opt/pico-sdk/src/rp2_common/pico_double/double_aeabi.S.obj
 .ARM.attributes
                0x00000456       0x32 CMakeFiles/hello_usb.dir/opt/pico-sdk/src/rp2_common/pico_double/double_init_rom.c.obj
 .ARM.attributes
                0x00000488       0x22 CMakeFiles/hello_usb.dir/opt/pico-sdk/src/rp2_common/pico_double/double_v1_rom_shim.S.obj
 .ARM.attributes
                0x000004aa       0x22 CMakeFiles/hello_usb.dir/opt/pico-sdk/src/rp2_common/pico_int64_ops/pico_int64_ops_aeabi.S.obj
 .ARM.attributes
                0x000004cc       0x22 CMakeFiles/hello_usb.dir/opt/pico-sdk/src/rp2_common/pico_float/float_aeabi.S.obj
 .ARM.attributes
                0x000004ee       0x32 CMakeFiles/hello_usb.dir/opt/pico-sdk/src/rp2_common/pico_float/float_init_rom.c.obj
 .ARM.attributes
                0x00000520       0x22 CMakeFiles/hello_usb.dir/opt/pico-sdk/src/rp2_common/pico_float/float_v1_rom_shim.S.obj
 .ARM.attributes
                0x00000542       0x22 CMakeFiles/hello_usb.dir/opt/pico-sdk/src/rp2_common/pico_mem_ops/mem_ops_aeabi.S.obj
 .ARM.attributes
                0x00000564       0x22 CMakeFiles/hello_usb.dir/opt/pico-sdk/src/rp2_common/pico_standard_link/crt0.S.obj
 .ARM.attributes
                0x00000586       0x32 CMakeFiles/hello_usb.dir/opt/pico-sdk/src/rp2_common/pico_standard_link/binary_info.c.obj
 .ARM.attributes
                0x000005b8       0x32 CMakeFiles/hello_usb.dir/opt/pico-sdk/src/rp2_common/pico_stdio/stdio.c.obj
 .ARM.attributes
                0x000005ea       0x32 CMakeFiles/hello_usb.dir/opt/pico-sdk/src/rp2_common/pico_stdio_usb/reset_interface.c.obj
 .ARM.attributes
                0x0000061c       0x32 CMakeFiles/hello_usb.dir/opt/pico-sdk/src/rp2_common/pico_stdio_usb/stdio_usb.c.obj
 .ARM.attributes
                0x0000064e       0x32 CMakeFiles/hello_usb.dir/opt/pico-sdk/src/rp2_common/pico_stdio_usb/stdio_usb_descriptors.c.obj
 .ARM.attributes
                0x00000680       0x32 CMakeFiles/hello_usb.dir/opt/pico-sdk/lib/tinyusb/src/portable/raspberrypi/rp2040/dcd_rp2040.c.obj
 .ARM.attributes
                0x000006b2       0x32 CMakeFiles/hello_usb.dir/opt/pico-sdk/lib/tinyusb/src/portable/raspberrypi/rp2040/rp2040_usb.c.obj
 .ARM.attributes
                0x000006e4       0x32 CMakeFiles/hello_usb.dir/opt/pico-sdk/lib/tinyusb/src/device/usbd.c.obj
 .ARM.attributes
                0x00000716       0x32 CMakeFiles/hello_usb.dir/opt/pico-sdk/lib/tinyusb/src/device/usbd_control.c.obj
 .ARM.attributes
                0x00000748       0x32 CMakeFiles/hello_usb.dir/opt/pico-sdk/lib/tinyusb/src/class/cdc/cdc_device.c.obj
 .ARM.attributes
                0x0000077a       0x32 CMakeFiles/hello_usb.dir/opt/pico-sdk/lib/tinyusb/src/tusb.c.obj
 .ARM.attributes
                0x000007ac       0x32 CMakeFiles/hello_usb.dir/opt/pico-sdk/lib/tinyusb/src/common/tusb_fifo.c.obj
 .ARM.attributes
                0x000007de       0x32 CMakeFiles/hello_usb.dir/opt/pico-sdk/src/rp2_common/pico_unique_id/unique_id.c.obj
 .ARM.attributes
                0x00000810       0x32 CMakeFiles/hello_usb.dir/opt/pico-sdk/src/rp2_common/hardware_flash/flash.c.obj
 .ARM.attributes
                0x00000842       0x22 /tmp/cc0cJ7pH.o
 .ARM.attributes
                0x00000864       0x1e /usr/lib/gcc/arm-none-eabi/7.3.1/thumb/v6-m/libgcc.a(_dvmd_tls.o)
 .ARM.attributes
                0x00000882       0x2c /usr/lib/gcc/arm-none-eabi/7.3.1/../../../arm-none-eabi/lib/thumb/v6-m/libg.a(lib_a-strlen-stub.o)
 .ARM.attributes
                0x000008ae       0x2c /usr/lib/gcc/arm-none-eabi/7.3.1/thumb/v6-m/crtend.o

.comment        0x00000000       0xae
 .comment       0x00000000       0x57 /usr/lib/gcc/arm-none-eabi/7.3.1/thumb/v6-m/crtbegin.o
                                 0x58 (size before relaxing)
 .comment       0x00000057       0x58 CMakeFiles/hello_usb.dir/hello_usb.c.obj
 .comment       0x00000057       0x58 CMakeFiles/hello_usb.dir/opt/pico-sdk/src/rp2_common/hardware_claim/claim.c.obj
 .comment       0x00000057       0x58 CMakeFiles/hello_usb.dir/opt/pico-sdk/src/rp2_common/pico_platform/platform.c.obj
 .comment       0x00000057       0x58 CMakeFiles/hello_usb.dir/opt/pico-sdk/src/rp2_common/hardware_sync/sync.c.obj
 .comment       0x00000057       0x58 CMakeFiles/hello_usb.dir/opt/pico-sdk/src/common/pico_time/time.c.obj
 .comment       0x00000057       0x58 CMakeFiles/hello_usb.dir/opt/pico-sdk/src/rp2_common/hardware_timer/timer.c.obj
 .comment       0x00000057       0x58 CMakeFiles/hello_usb.dir/opt/pico-sdk/src/common/pico_sync/lock_core.c.obj
 .comment       0x00000057       0x58 CMakeFiles/hello_usb.dir/opt/pico-sdk/src/common/pico_sync/mutex.c.obj
 .comment       0x00000057       0x58 CMakeFiles/hello_usb.dir/opt/pico-sdk/src/common/pico_sync/critical_section.c.obj
 .comment       0x00000057       0x58 CMakeFiles/hello_usb.dir/opt/pico-sdk/src/common/pico_util/pheap.c.obj
 .comment       0x00000057       0x58 CMakeFiles/hello_usb.dir/opt/pico-sdk/src/rp2_common/pico_runtime/runtime.c.obj
 .comment       0x00000057       0x58 CMakeFiles/hello_usb.dir/opt/pico-sdk/src/rp2_common/hardware_clocks/clocks.c.obj
 .comment       0x00000057       0x58 CMakeFiles/hello_usb.dir/opt/pico-sdk/src/rp2_common/hardware_irq/irq.c.obj
 .comment       0x00000057       0x58 CMakeFiles/hello_usb.dir/opt/pico-sdk/src/rp2_common/hardware_pll/pll.c.obj
 .comment       0x00000057       0x58 CMakeFiles/hello_usb.dir/opt/pico-sdk/src/rp2_common/hardware_watchdog/watchdog.c.obj
 .comment       0x00000057       0x58 CMakeFiles/hello_usb.dir/opt/pico-sdk/src/rp2_common/hardware_xosc/xosc.c.obj
 .comment       0x00000057       0x58 CMakeFiles/hello_usb.dir/opt/pico-sdk/src/rp2_common/pico_printf/printf.c.obj
 .comment       0x00000057       0x58 CMakeFiles/hello_usb.dir/opt/pico-sdk/src/rp2_common/pico_bootrom/bootrom.c.obj
 .comment       0x00000057       0x58 CMakeFiles/hello_usb.dir/opt/pico-sdk/src/rp2_common/pico_double/double_init_rom.c.obj
 .comment       0x00000057       0x58 CMakeFiles/hello_usb.dir/opt/pico-sdk/src/rp2_common/pico_float/float_init_rom.c.obj
 .comment       0x00000057       0x58 CMakeFiles/hello_usb.dir/opt/pico-sdk/src/rp2_common/pico_standard_link/binary_info.c.obj
 .comment       0x00000057       0x58 CMakeFiles/hello_usb.dir/opt/pico-sdk/src/rp2_common/pico_stdio/stdio.c.obj
 .comment       0x00000057       0x58 CMakeFiles/hello_usb.dir/opt/pico-sdk/src/rp2_common/pico_stdio_usb/reset_interface.c.obj
 .comment       0x00000057       0x58 CMakeFiles/hello_usb.dir/opt/pico-sdk/src/rp2_common/pico_stdio_usb/stdio_usb.c.obj
 .comment       0x00000057       0x58 CMakeFiles/hello_usb.dir/opt/pico-sdk/src/rp2_common/pico_stdio_usb/stdio_usb_descriptors.c.obj
 .comment       0x00000057       0x58 CMakeFiles/hello_usb.dir/opt/pico-sdk/lib/tinyusb/src/portable/raspberrypi/rp2040/dcd_rp2040.c.obj
 .comment       0x00000057       0x58 CMakeFiles/hello_usb.dir/opt/pico-sdk/lib/tinyusb/src/portable/raspberrypi/rp2040/rp2040_usb.c.obj
 .comment       0x00000057       0x58 CMakeFiles/hello_usb.dir/opt/pico-sdk/lib/tinyusb/src/device/usbd.c.obj
 .comment       0x00000057       0x58 CMakeFiles/hello_usb.dir/opt/pico-sdk/lib/tinyusb/src/device/usbd_control.c.obj
 .comment       0x00000057       0x58 CMakeFiles/hello_usb.dir/opt/pico-sdk/lib/tinyusb/src/class/cdc/cdc_device.c.obj
 .comment       0x00000057       0x58 CMakeFiles/hello_usb.dir/opt/pico-sdk/lib/tinyusb/src/tusb.c.obj
 .comment       0x00000057       0x58 CMakeFiles/hello_usb.dir/opt/pico-sdk/lib/tinyusb/src/common/tusb_fifo.c.obj
 .comment       0x00000057       0x58 CMakeFiles/hello_usb.dir/opt/pico-sdk/src/rp2_common/pico_unique_id/unique_id.c.obj
 .comment       0x00000057       0x58 CMakeFiles/hello_usb.dir/opt/pico-sdk/src/rp2_common/hardware_flash/flash.c.obj
 .comment       0x00000057       0x57 /usr/lib/gcc/arm-none-eabi/7.3.1/../../../arm-none-eabi/lib/thumb/v6-m/libg.a(lib_a-strlen-stub.o)
                                 0x58 (size before relaxing)
 .comment       0x000000ae       0x58 /usr/lib/gcc/arm-none-eabi/7.3.1/thumb/v6-m/crtend.o

.debug_info     0x00000000    0x252cd
 .debug_info    0x00000000      0x96d CMakeFiles/hello_usb.dir/hello_usb.c.obj
 .debug_info    0x0000096d      0x5d7 CMakeFiles/hello_usb.dir/opt/pico-sdk/src/rp2_common/hardware_claim/claim.c.obj
 .debug_info    0x00000f44      0x1c6 CMakeFiles/hello_usb.dir/opt/pico-sdk/src/rp2_common/pico_platform/platform.c.obj
 .debug_info    0x0000110a      0x508 CMakeFiles/hello_usb.dir/opt/pico-sdk/src/rp2_common/hardware_sync/sync.c.obj
 .debug_info    0x00001612     0x3a95 CMakeFiles/hello_usb.dir/opt/pico-sdk/src/common/pico_time/time.c.obj
 .debug_info    0x000050a7      0xe5f CMakeFiles/hello_usb.dir/opt/pico-sdk/src/rp2_common/hardware_timer/timer.c.obj
 .debug_info    0x00005f06      0x1e8 CMakeFiles/hello_usb.dir/opt/pico-sdk/src/common/pico_sync/lock_core.c.obj
 .debug_info    0x000060ee     0x108d CMakeFiles/hello_usb.dir/opt/pico-sdk/src/common/pico_sync/mutex.c.obj
 .debug_info    0x0000717b      0x2fd CMakeFiles/hello_usb.dir/opt/pico-sdk/src/common/pico_sync/critical_section.c.obj
 .debug_info    0x00007478     0x1842 CMakeFiles/hello_usb.dir/opt/pico-sdk/src/common/pico_util/pheap.c.obj
 .debug_info    0x00008cba     0x1111 CMakeFiles/hello_usb.dir/opt/pico-sdk/src/rp2_common/pico_runtime/runtime.c.obj
 .debug_info    0x00009dcb      0xd65 CMakeFiles/hello_usb.dir/opt/pico-sdk/src/rp2_common/hardware_clocks/clocks.c.obj
 .debug_info    0x0000ab30     0x15bd CMakeFiles/hello_usb.dir/opt/pico-sdk/src/rp2_common/hardware_irq/irq.c.obj
 .debug_info    0x0000c0ed       0x26 CMakeFiles/hello_usb.dir/opt/pico-sdk/src/rp2_common/hardware_irq/irq_handler_chain.S.obj
 .debug_info    0x0000c113      0x453 CMakeFiles/hello_usb.dir/opt/pico-sdk/src/rp2_common/hardware_pll/pll.c.obj
 .debug_info    0x0000c566      0xc21 CMakeFiles/hello_usb.dir/opt/pico-sdk/src/rp2_common/hardware_watchdog/watchdog.c.obj
 .debug_info    0x0000d187      0x1b7 CMakeFiles/hello_usb.dir/opt/pico-sdk/src/rp2_common/hardware_xosc/xosc.c.obj
 .debug_info    0x0000d33e     0x1d4b CMakeFiles/hello_usb.dir/opt/pico-sdk/src/rp2_common/pico_printf/printf.c.obj
 .debug_info    0x0000f089       0x22 CMakeFiles/hello_usb.dir/opt/pico-sdk/src/rp2_common/pico_bit_ops/bit_ops_aeabi.S.obj
 .debug_info    0x0000f0ab      0x1f5 CMakeFiles/hello_usb.dir/opt/pico-sdk/src/rp2_common/pico_bootrom/bootrom.c.obj
 .debug_info    0x0000f2a0       0x22 CMakeFiles/hello_usb.dir/opt/pico-sdk/src/rp2_common/pico_divider/divider.S.obj
 .debug_info    0x0000f2c2       0x22 CMakeFiles/hello_usb.dir/opt/pico-sdk/src/rp2_common/pico_double/double_aeabi.S.obj
 .debug_info    0x0000f2e4      0xa8a CMakeFiles/hello_usb.dir/opt/pico-sdk/src/rp2_common/pico_double/double_init_rom.c.obj
 .debug_info    0x0000fd6e       0x22 CMakeFiles/hello_usb.dir/opt/pico-sdk/src/rp2_common/pico_double/double_v1_rom_shim.S.obj
 .debug_info    0x0000fd90       0x26 CMakeFiles/hello_usb.dir/opt/pico-sdk/src/rp2_common/pico_int64_ops/pico_int64_ops_aeabi.S.obj
 .debug_info    0x0000fdb6       0x22 CMakeFiles/hello_usb.dir/opt/pico-sdk/src/rp2_common/pico_float/float_aeabi.S.obj
 .debug_info    0x0000fdd8      0xacc CMakeFiles/hello_usb.dir/opt/pico-sdk/src/rp2_common/pico_float/float_init_rom.c.obj
 .debug_info    0x000108a4       0x22 CMakeFiles/hello_usb.dir/opt/pico-sdk/src/rp2_common/pico_float/float_v1_rom_shim.S.obj
 .debug_info    0x000108c6       0x22 CMakeFiles/hello_usb.dir/opt/pico-sdk/src/rp2_common/pico_mem_ops/mem_ops_aeabi.S.obj
 .debug_info    0x000108e8       0x22 CMakeFiles/hello_usb.dir/opt/pico-sdk/src/rp2_common/pico_standard_link/crt0.S.obj
 .debug_info    0x0001090a      0x2fa CMakeFiles/hello_usb.dir/opt/pico-sdk/src/rp2_common/pico_standard_link/binary_info.c.obj
 .debug_info    0x00010c04     0x179f CMakeFiles/hello_usb.dir/opt/pico-sdk/src/rp2_common/pico_stdio/stdio.c.obj
 .debug_info    0x000123a3     0x1058 CMakeFiles/hello_usb.dir/opt/pico-sdk/src/rp2_common/pico_stdio_usb/reset_interface.c.obj
 .debug_info    0x000133fb     0x155d CMakeFiles/hello_usb.dir/opt/pico-sdk/src/rp2_common/pico_stdio_usb/stdio_usb.c.obj
 .debug_info    0x00014958      0xe99 CMakeFiles/hello_usb.dir/opt/pico-sdk/src/rp2_common/pico_stdio_usb/stdio_usb_descriptors.c.obj
 .debug_info    0x000157f1     0x21c0 CMakeFiles/hello_usb.dir/opt/pico-sdk/lib/tinyusb/src/portable/raspberrypi/rp2040/dcd_rp2040.c.obj
 .debug_info    0x000179b1     0x1456 CMakeFiles/hello_usb.dir/opt/pico-sdk/lib/tinyusb/src/portable/raspberrypi/rp2040/rp2040_usb.c.obj
 .debug_info    0x00018e07     0x422d CMakeFiles/hello_usb.dir/opt/pico-sdk/lib/tinyusb/src/device/usbd.c.obj
 .debug_info    0x0001d034     0x120d CMakeFiles/hello_usb.dir/opt/pico-sdk/lib/tinyusb/src/device/usbd_control.c.obj
 .debug_info    0x0001e241     0x2244 CMakeFiles/hello_usb.dir/opt/pico-sdk/lib/tinyusb/src/class/cdc/cdc_device.c.obj
 .debug_info    0x00020485      0xd48 CMakeFiles/hello_usb.dir/opt/pico-sdk/lib/tinyusb/src/tusb.c.obj
 .debug_info    0x000211cd     0x2b24 CMakeFiles/hello_usb.dir/opt/pico-sdk/lib/tinyusb/src/common/tusb_fifo.c.obj
 .debug_info    0x00023cf1      0x235 CMakeFiles/hello_usb.dir/opt/pico-sdk/src/rp2_common/pico_unique_id/unique_id.c.obj
 .debug_info    0x00023f26      0xa9f CMakeFiles/hello_usb.dir/opt/pico-sdk/src/rp2_common/hardware_flash/flash.c.obj
 .debug_info    0x000249c5       0x26 /usr/lib/gcc/arm-none-eabi/7.3.1/thumb/v6-m/libgcc.a(_dvmd_tls.o)
 .debug_info    0x000249eb      0x8e2 /usr/lib/gcc/arm-none-eabi/7.3.1/../../../arm-none-eabi/lib/thumb/v6-m/libg.a(lib_a-strlen-stub.o)

.debug_abbrev   0x00000000     0x64a8
 .debug_abbrev  0x00000000      0x1fc CMakeFiles/hello_usb.dir/hello_usb.c.obj
 .debug_abbrev  0x000001fc      0x254 CMakeFiles/hello_usb.dir/opt/pico-sdk/src/rp2_common/hardware_claim/claim.c.obj
 .debug_abbrev  0x00000450       0xde CMakeFiles/hello_usb.dir/opt/pico-sdk/src/rp2_common/pico_platform/platform.c.obj
 .debug_abbrev  0x0000052e      0x1e8 CMakeFiles/hello_usb.dir/opt/pico-sdk/src/rp2_common/hardware_sync/sync.c.obj
 .debug_abbrev  0x00000716      0x57c CMakeFiles/hello_usb.dir/opt/pico-sdk/src/common/pico_time/time.c.obj
 .debug_abbrev  0x00000c92      0x300 CMakeFiles/hello_usb.dir/opt/pico-sdk/src/rp2_common/hardware_timer/timer.c.obj
 .debug_abbrev  0x00000f92      0x12d CMakeFiles/hello_usb.dir/opt/pico-sdk/src/common/pico_sync/lock_core.c.obj
 .debug_abbrev  0x000010bf      0x329 CMakeFiles/hello_usb.dir/opt/pico-sdk/src/common/pico_sync/mutex.c.obj
 .debug_abbrev  0x000013e8      0x1a4 CMakeFiles/hello_usb.dir/opt/pico-sdk/src/common/pico_sync/critical_section.c.obj
 .debug_abbrev  0x0000158c      0x376 CMakeFiles/hello_usb.dir/opt/pico-sdk/src/common/pico_util/pheap.c.obj
 .debug_abbrev  0x00001902      0x3d5 CMakeFiles/hello_usb.dir/opt/pico-sdk/src/rp2_common/pico_runtime/runtime.c.obj
 .debug_abbrev  0x00001cd7      0x330 CMakeFiles/hello_usb.dir/opt/pico-sdk/src/rp2_common/hardware_clocks/clocks.c.obj
 .debug_abbrev  0x00002007      0x3dc CMakeFiles/hello_usb.dir/opt/pico-sdk/src/rp2_common/hardware_irq/irq.c.obj
 .debug_abbrev  0x000023e3       0x14 CMakeFiles/hello_usb.dir/opt/pico-sdk/src/rp2_common/hardware_irq/irq_handler_chain.S.obj
 .debug_abbrev  0x000023f7      0x1a0 CMakeFiles/hello_usb.dir/opt/pico-sdk/src/rp2_common/hardware_pll/pll.c.obj
 .debug_abbrev  0x00002597      0x27f CMakeFiles/hello_usb.dir/opt/pico-sdk/src/rp2_common/hardware_watchdog/watchdog.c.obj
 .debug_abbrev  0x00002816       0xec CMakeFiles/hello_usb.dir/opt/pico-sdk/src/rp2_common/hardware_xosc/xosc.c.obj
 .debug_abbrev  0x00002902      0x402 CMakeFiles/hello_usb.dir/opt/pico-sdk/src/rp2_common/pico_printf/printf.c.obj
 .debug_abbrev  0x00002d04       0x12 CMakeFiles/hello_usb.dir/opt/pico-sdk/src/rp2_common/pico_bit_ops/bit_ops_aeabi.S.obj
 .debug_abbrev  0x00002d16       0xe3 CMakeFiles/hello_usb.dir/opt/pico-sdk/src/rp2_common/pico_bootrom/bootrom.c.obj
 .debug_abbrev  0x00002df9       0x12 CMakeFiles/hello_usb.dir/opt/pico-sdk/src/rp2_common/pico_divider/divider.S.obj
 .debug_abbrev  0x00002e0b       0x12 CMakeFiles/hello_usb.dir/opt/pico-sdk/src/rp2_common/pico_double/double_aeabi.S.obj
 .debug_abbrev  0x00002e1d      0x267 CMakeFiles/hello_usb.dir/opt/pico-sdk/src/rp2_common/pico_double/double_init_rom.c.obj
 .debug_abbrev  0x00003084       0x12 CMakeFiles/hello_usb.dir/opt/pico-sdk/src/rp2_common/pico_double/double_v1_rom_shim.S.obj
 .debug_abbrev  0x00003096       0x14 CMakeFiles/hello_usb.dir/opt/pico-sdk/src/rp2_common/pico_int64_ops/pico_int64_ops_aeabi.S.obj
 .debug_abbrev  0x000030aa       0x12 CMakeFiles/hello_usb.dir/opt/pico-sdk/src/rp2_common/pico_float/float_aeabi.S.obj
 .debug_abbrev  0x000030bc      0x281 CMakeFiles/hello_usb.dir/opt/pico-sdk/src/rp2_common/pico_float/float_init_rom.c.obj
 .debug_abbrev  0x0000333d       0x12 CMakeFiles/hello_usb.dir/opt/pico-sdk/src/rp2_common/pico_float/float_v1_rom_shim.S.obj
 .debug_abbrev  0x0000334f       0x12 CMakeFiles/hello_usb.dir/opt/pico-sdk/src/rp2_common/pico_mem_ops/mem_ops_aeabi.S.obj
 .debug_abbrev  0x00003361       0x12 CMakeFiles/hello_usb.dir/opt/pico-sdk/src/rp2_common/pico_standard_link/crt0.S.obj
 .debug_abbrev  0x00003373       0x9f CMakeFiles/hello_usb.dir/opt/pico-sdk/src/rp2_common/pico_standard_link/binary_info.c.obj
 .debug_abbrev  0x00003412      0x4b6 CMakeFiles/hello_usb.dir/opt/pico-sdk/src/rp2_common/pico_stdio/stdio.c.obj
 .debug_abbrev  0x000038c8      0x370 CMakeFiles/hello_usb.dir/opt/pico-sdk/src/rp2_common/pico_stdio_usb/reset_interface.c.obj
 .debug_abbrev  0x00003c38      0x42c CMakeFiles/hello_usb.dir/opt/pico-sdk/src/rp2_common/pico_stdio_usb/stdio_usb.c.obj
 .debug_abbrev  0x00004064      0x23f CMakeFiles/hello_usb.dir/opt/pico-sdk/src/rp2_common/pico_stdio_usb/stdio_usb_descriptors.c.obj
 .debug_abbrev  0x000042a3      0x442 CMakeFiles/hello_usb.dir/opt/pico-sdk/lib/tinyusb/src/portable/raspberrypi/rp2040/dcd_rp2040.c.obj
 .debug_abbrev  0x000046e5      0x3c4 CMakeFiles/hello_usb.dir/opt/pico-sdk/lib/tinyusb/src/portable/raspberrypi/rp2040/rp2040_usb.c.obj
 .debug_abbrev  0x00004aa9      0x55d CMakeFiles/hello_usb.dir/opt/pico-sdk/lib/tinyusb/src/device/usbd.c.obj
 .debug_abbrev  0x00005006      0x374 CMakeFiles/hello_usb.dir/opt/pico-sdk/lib/tinyusb/src/device/usbd_control.c.obj
 .debug_abbrev  0x0000537a      0x4a5 CMakeFiles/hello_usb.dir/opt/pico-sdk/lib/tinyusb/src/class/cdc/cdc_device.c.obj
 .debug_abbrev  0x0000581f      0x2e3 CMakeFiles/hello_usb.dir/opt/pico-sdk/lib/tinyusb/src/tusb.c.obj
 .debug_abbrev  0x00005b02      0x45c CMakeFiles/hello_usb.dir/opt/pico-sdk/lib/tinyusb/src/common/tusb_fifo.c.obj
 .debug_abbrev  0x00005f5e      0x143 CMakeFiles/hello_usb.dir/opt/pico-sdk/src/rp2_common/pico_unique_id/unique_id.c.obj
 .debug_abbrev  0x000060a1      0x23b CMakeFiles/hello_usb.dir/opt/pico-sdk/src/rp2_common/hardware_flash/flash.c.obj
 .debug_abbrev  0x000062dc       0x14 /usr/lib/gcc/arm-none-eabi/7.3.1/thumb/v6-m/libgcc.a(_dvmd_tls.o)
 .debug_abbrev  0x000062f0      0x1b8 /usr/lib/gcc/arm-none-eabi/7.3.1/../../../arm-none-eabi/lib/thumb/v6-m/libg.a(lib_a-strlen-stub.o)

.debug_aranges  0x00000000     0x1238
 .debug_aranges
                0x00000000       0x20 CMakeFiles/hello_usb.dir/hello_usb.c.obj
 .debug_aranges
                0x00000020       0x48 CMakeFiles/hello_usb.dir/opt/pico-sdk/src/rp2_common/hardware_claim/claim.c.obj
 .debug_aranges
                0x00000068       0x28 CMakeFiles/hello_usb.dir/opt/pico-sdk/src/rp2_common/pico_platform/platform.c.obj
 .debug_aranges
                0x00000090       0x58 CMakeFiles/hello_usb.dir/opt/pico-sdk/src/rp2_common/hardware_sync/sync.c.obj
 .debug_aranges
                0x000000e8       0xd0 CMakeFiles/hello_usb.dir/opt/pico-sdk/src/common/pico_time/time.c.obj
 .debug_aranges
                0x000001b8       0x78 CMakeFiles/hello_usb.dir/opt/pico-sdk/src/rp2_common/hardware_timer/timer.c.obj
 .debug_aranges
                0x00000230       0x20 CMakeFiles/hello_usb.dir/opt/pico-sdk/src/common/pico_sync/lock_core.c.obj
 .debug_aranges
                0x00000250       0x60 CMakeFiles/hello_usb.dir/opt/pico-sdk/src/common/pico_sync/mutex.c.obj
 .debug_aranges
                0x000002b0       0x30 CMakeFiles/hello_usb.dir/opt/pico-sdk/src/common/pico_sync/critical_section.c.obj
 .debug_aranges
                0x000002e0       0x78 CMakeFiles/hello_usb.dir/opt/pico-sdk/src/common/pico_util/pheap.c.obj
 .debug_aranges
                0x00000358       0x60 CMakeFiles/hello_usb.dir/opt/pico-sdk/src/rp2_common/pico_runtime/runtime.c.obj
 .debug_aranges
                0x000003b8       0x70 CMakeFiles/hello_usb.dir/opt/pico-sdk/src/rp2_common/hardware_clocks/clocks.c.obj
 .debug_aranges
                0x00000428       0x90 CMakeFiles/hello_usb.dir/opt/pico-sdk/src/rp2_common/hardware_irq/irq.c.obj
 .debug_aranges
                0x000004b8       0x20 CMakeFiles/hello_usb.dir/opt/pico-sdk/src/rp2_common/hardware_irq/irq_handler_chain.S.obj
 .debug_aranges
                0x000004d8       0x28 CMakeFiles/hello_usb.dir/opt/pico-sdk/src/rp2_common/hardware_pll/pll.c.obj
 .debug_aranges
                0x00000500       0x50 CMakeFiles/hello_usb.dir/opt/pico-sdk/src/rp2_common/hardware_watchdog/watchdog.c.obj
 .debug_aranges
                0x00000550       0x30 CMakeFiles/hello_usb.dir/opt/pico-sdk/src/rp2_common/hardware_xosc/xosc.c.obj
 .debug_aranges
                0x00000580       0x90 CMakeFiles/hello_usb.dir/opt/pico-sdk/src/rp2_common/pico_printf/printf.c.obj
 .debug_aranges
                0x00000610       0x68 CMakeFiles/hello_usb.dir/opt/pico-sdk/src/rp2_common/pico_bit_ops/bit_ops_aeabi.S.obj
 .debug_aranges
                0x00000678       0x30 CMakeFiles/hello_usb.dir/opt/pico-sdk/src/rp2_common/pico_bootrom/bootrom.c.obj
 .debug_aranges
                0x000006a8       0x40 CMakeFiles/hello_usb.dir/opt/pico-sdk/src/rp2_common/pico_divider/divider.S.obj
 .debug_aranges
                0x000006e8      0x140 CMakeFiles/hello_usb.dir/opt/pico-sdk/src/rp2_common/pico_double/double_aeabi.S.obj
 .debug_aranges
                0x00000828       0x20 CMakeFiles/hello_usb.dir/opt/pico-sdk/src/rp2_common/pico_double/double_init_rom.c.obj
 .debug_aranges
                0x00000848       0xc8 CMakeFiles/hello_usb.dir/opt/pico-sdk/src/rp2_common/pico_double/double_v1_rom_shim.S.obj
 .debug_aranges
                0x00000910       0x20 CMakeFiles/hello_usb.dir/opt/pico-sdk/src/rp2_common/pico_int64_ops/pico_int64_ops_aeabi.S.obj
 .debug_aranges
                0x00000930      0x130 CMakeFiles/hello_usb.dir/opt/pico-sdk/src/rp2_common/pico_float/float_aeabi.S.obj
 .debug_aranges
                0x00000a60       0x20 CMakeFiles/hello_usb.dir/opt/pico-sdk/src/rp2_common/pico_float/float_init_rom.c.obj
 .debug_aranges
                0x00000a80       0x50 CMakeFiles/hello_usb.dir/opt/pico-sdk/src/rp2_common/pico_float/float_v1_rom_shim.S.obj
 .debug_aranges
                0x00000ad0       0x38 CMakeFiles/hello_usb.dir/opt/pico-sdk/src/rp2_common/pico_mem_ops/mem_ops_aeabi.S.obj
 .debug_aranges
                0x00000b08       0x28 CMakeFiles/hello_usb.dir/opt/pico-sdk/src/rp2_common/pico_standard_link/crt0.S.obj
 .debug_aranges
                0x00000b30       0x18 CMakeFiles/hello_usb.dir/opt/pico-sdk/src/rp2_common/pico_standard_link/binary_info.c.obj
 .debug_aranges
                0x00000b48       0xb8 CMakeFiles/hello_usb.dir/opt/pico-sdk/src/rp2_common/pico_stdio/stdio.c.obj
 .debug_aranges
                0x00000c00       0x50 CMakeFiles/hello_usb.dir/opt/pico-sdk/src/rp2_common/pico_stdio_usb/reset_interface.c.obj
 .debug_aranges
                0x00000c50       0x40 CMakeFiles/hello_usb.dir/opt/pico-sdk/src/rp2_common/pico_stdio_usb/stdio_usb.c.obj
 .debug_aranges
                0x00000c90       0x30 CMakeFiles/hello_usb.dir/opt/pico-sdk/src/rp2_common/pico_stdio_usb/stdio_usb_descriptors.c.obj
 .debug_aranges
                0x00000cc0       0xf0 CMakeFiles/hello_usb.dir/opt/pico-sdk/lib/tinyusb/src/portable/raspberrypi/rp2040/dcd_rp2040.c.obj
 .debug_aranges
                0x00000db0       0x58 CMakeFiles/hello_usb.dir/opt/pico-sdk/lib/tinyusb/src/portable/raspberrypi/rp2040/rp2040_usb.c.obj
 .debug_aranges
                0x00000e08      0x128 CMakeFiles/hello_usb.dir/opt/pico-sdk/lib/tinyusb/src/device/usbd.c.obj
 .debug_aranges
                0x00000f30       0x50 CMakeFiles/hello_usb.dir/opt/pico-sdk/lib/tinyusb/src/device/usbd_control.c.obj
 .debug_aranges
                0x00000f80       0xa8 CMakeFiles/hello_usb.dir/opt/pico-sdk/lib/tinyusb/src/class/cdc/cdc_device.c.obj
 .debug_aranges
                0x00001028       0x38 CMakeFiles/hello_usb.dir/opt/pico-sdk/lib/tinyusb/src/tusb.c.obj
 .debug_aranges
                0x00001060      0x118 CMakeFiles/hello_usb.dir/opt/pico-sdk/lib/tinyusb/src/common/tusb_fifo.c.obj
 .debug_aranges
                0x00001178       0x30 CMakeFiles/hello_usb.dir/opt/pico-sdk/src/rp2_common/pico_unique_id/unique_id.c.obj
 .debug_aranges
                0x000011a8       0x50 CMakeFiles/hello_usb.dir/opt/pico-sdk/src/rp2_common/hardware_flash/flash.c.obj
 .debug_aranges
                0x000011f8       0x20 /usr/lib/gcc/arm-none-eabi/7.3.1/thumb/v6-m/libgcc.a(_dvmd_tls.o)
 .debug_aranges
                0x00001218       0x20 /usr/lib/gcc/arm-none-eabi/7.3.1/../../../arm-none-eabi/lib/thumb/v6-m/libg.a(lib_a-strlen-stub.o)

.debug_ranges   0x00000000     0x1f18
 .debug_ranges  0x00000000       0x10 CMakeFiles/hello_usb.dir/hello_usb.c.obj
 .debug_ranges  0x00000010       0x38 CMakeFiles/hello_usb.dir/opt/pico-sdk/src/rp2_common/hardware_claim/claim.c.obj
 .debug_ranges  0x00000048       0x18 CMakeFiles/hello_usb.dir/opt/pico-sdk/src/rp2_common/pico_platform/platform.c.obj
 .debug_ranges  0x00000060       0x48 CMakeFiles/hello_usb.dir/opt/pico-sdk/src/rp2_common/hardware_sync/sync.c.obj
 .debug_ranges  0x000000a8      0x648 CMakeFiles/hello_usb.dir/opt/pico-sdk/src/common/pico_time/time.c.obj
 .debug_ranges  0x000006f0       0x98 CMakeFiles/hello_usb.dir/opt/pico-sdk/src/rp2_common/hardware_timer/timer.c.obj
 .debug_ranges  0x00000788       0x10 CMakeFiles/hello_usb.dir/opt/pico-sdk/src/common/pico_sync/lock_core.c.obj
 .debug_ranges  0x00000798      0x158 CMakeFiles/hello_usb.dir/opt/pico-sdk/src/common/pico_sync/mutex.c.obj
 .debug_ranges  0x000008f0       0x20 CMakeFiles/hello_usb.dir/opt/pico-sdk/src/common/pico_sync/critical_section.c.obj
 .debug_ranges  0x00000910      0x248 CMakeFiles/hello_usb.dir/opt/pico-sdk/src/common/pico_util/pheap.c.obj
 .debug_ranges  0x00000b58       0x50 CMakeFiles/hello_usb.dir/opt/pico-sdk/src/rp2_common/pico_runtime/runtime.c.obj
 .debug_ranges  0x00000ba8       0x60 CMakeFiles/hello_usb.dir/opt/pico-sdk/src/rp2_common/hardware_clocks/clocks.c.obj
 .debug_ranges  0x00000c08      0x140 CMakeFiles/hello_usb.dir/opt/pico-sdk/src/rp2_common/hardware_irq/irq.c.obj
 .debug_ranges  0x00000d48       0x18 CMakeFiles/hello_usb.dir/opt/pico-sdk/src/rp2_common/hardware_pll/pll.c.obj
 .debug_ranges  0x00000d60       0x40 CMakeFiles/hello_usb.dir/opt/pico-sdk/src/rp2_common/hardware_watchdog/watchdog.c.obj
 .debug_ranges  0x00000da0       0x20 CMakeFiles/hello_usb.dir/opt/pico-sdk/src/rp2_common/hardware_xosc/xosc.c.obj
 .debug_ranges  0x00000dc0      0x110 CMakeFiles/hello_usb.dir/opt/pico-sdk/src/rp2_common/pico_printf/printf.c.obj
 .debug_ranges  0x00000ed0       0x60 CMakeFiles/hello_usb.dir/opt/pico-sdk/src/rp2_common/pico_bit_ops/bit_ops_aeabi.S.obj
 .debug_ranges  0x00000f30       0x38 CMakeFiles/hello_usb.dir/opt/pico-sdk/src/rp2_common/pico_bootrom/bootrom.c.obj
 .debug_ranges  0x00000f68       0x38 CMakeFiles/hello_usb.dir/opt/pico-sdk/src/rp2_common/pico_divider/divider.S.obj
 .debug_ranges  0x00000fa0      0x138 CMakeFiles/hello_usb.dir/opt/pico-sdk/src/rp2_common/pico_double/double_aeabi.S.obj
 .debug_ranges  0x000010d8       0x10 CMakeFiles/hello_usb.dir/opt/pico-sdk/src/rp2_common/pico_double/double_init_rom.c.obj
 .debug_ranges  0x000010e8       0xc0 CMakeFiles/hello_usb.dir/opt/pico-sdk/src/rp2_common/pico_double/double_v1_rom_shim.S.obj
 .debug_ranges  0x000011a8      0x128 CMakeFiles/hello_usb.dir/opt/pico-sdk/src/rp2_common/pico_float/float_aeabi.S.obj
 .debug_ranges  0x000012d0       0x28 CMakeFiles/hello_usb.dir/opt/pico-sdk/src/rp2_common/pico_float/float_init_rom.c.obj
 .debug_ranges  0x000012f8       0x48 CMakeFiles/hello_usb.dir/opt/pico-sdk/src/rp2_common/pico_float/float_v1_rom_shim.S.obj
 .debug_ranges  0x00001340       0x30 CMakeFiles/hello_usb.dir/opt/pico-sdk/src/rp2_common/pico_mem_ops/mem_ops_aeabi.S.obj
 .debug_ranges  0x00001370       0x20 CMakeFiles/hello_usb.dir/opt/pico-sdk/src/rp2_common/pico_standard_link/crt0.S.obj
 .debug_ranges  0x00001390      0x180 CMakeFiles/hello_usb.dir/opt/pico-sdk/src/rp2_common/pico_stdio/stdio.c.obj
 .debug_ranges  0x00001510       0x40 CMakeFiles/hello_usb.dir/opt/pico-sdk/src/rp2_common/pico_stdio_usb/reset_interface.c.obj
 .debug_ranges  0x00001550       0xd8 CMakeFiles/hello_usb.dir/opt/pico-sdk/src/rp2_common/pico_stdio_usb/stdio_usb.c.obj
 .debug_ranges  0x00001628       0x20 CMakeFiles/hello_usb.dir/opt/pico-sdk/src/rp2_common/pico_stdio_usb/stdio_usb_descriptors.c.obj
 .debug_ranges  0x00001648      0x110 CMakeFiles/hello_usb.dir/opt/pico-sdk/lib/tinyusb/src/portable/raspberrypi/rp2040/dcd_rp2040.c.obj
 .debug_ranges  0x00001758       0x48 CMakeFiles/hello_usb.dir/opt/pico-sdk/lib/tinyusb/src/portable/raspberrypi/rp2040/rp2040_usb.c.obj
 .debug_ranges  0x000017a0      0x338 CMakeFiles/hello_usb.dir/opt/pico-sdk/lib/tinyusb/src/device/usbd.c.obj
 .debug_ranges  0x00001ad8       0x88 CMakeFiles/hello_usb.dir/opt/pico-sdk/lib/tinyusb/src/device/usbd_control.c.obj
 .debug_ranges  0x00001b60      0x128 CMakeFiles/hello_usb.dir/opt/pico-sdk/lib/tinyusb/src/class/cdc/cdc_device.c.obj
 .debug_ranges  0x00001c88       0x88 CMakeFiles/hello_usb.dir/opt/pico-sdk/lib/tinyusb/src/tusb.c.obj
 .debug_ranges  0x00001d10      0x178 CMakeFiles/hello_usb.dir/opt/pico-sdk/lib/tinyusb/src/common/tusb_fifo.c.obj
 .debug_ranges  0x00001e88       0x38 CMakeFiles/hello_usb.dir/opt/pico-sdk/src/rp2_common/pico_unique_id/unique_id.c.obj
 .debug_ranges  0x00001ec0       0x58 CMakeFiles/hello_usb.dir/opt/pico-sdk/src/rp2_common/hardware_flash/flash.c.obj

.debug_line     0x00000000     0xaa66
 .debug_line    0x00000000      0x21f CMakeFiles/hello_usb.dir/hello_usb.c.obj
 .debug_line    0x0000021f      0x244 CMakeFiles/hello_usb.dir/opt/pico-sdk/src/rp2_common/hardware_claim/claim.c.obj
 .debug_line    0x00000463      0x187 CMakeFiles/hello_usb.dir/opt/pico-sdk/src/rp2_common/pico_platform/platform.c.obj
 .debug_line    0x000005ea      0x274 CMakeFiles/hello_usb.dir/opt/pico-sdk/src/rp2_common/hardware_sync/sync.c.obj
 .debug_line    0x0000085e      0xa05 CMakeFiles/hello_usb.dir/opt/pico-sdk/src/common/pico_time/time.c.obj
 .debug_line    0x00001263      0x4e2 CMakeFiles/hello_usb.dir/opt/pico-sdk/src/rp2_common/hardware_timer/timer.c.obj
 .debug_line    0x00001745      0x1b8 CMakeFiles/hello_usb.dir/opt/pico-sdk/src/common/pico_sync/lock_core.c.obj
 .debug_line    0x000018fd      0x43a CMakeFiles/hello_usb.dir/opt/pico-sdk/src/common/pico_sync/mutex.c.obj
 .debug_line    0x00001d37      0x201 CMakeFiles/hello_usb.dir/opt/pico-sdk/src/common/pico_sync/critical_section.c.obj
 .debug_line    0x00001f38      0x3d6 CMakeFiles/hello_usb.dir/opt/pico-sdk/src/common/pico_util/pheap.c.obj
 .debug_line    0x0000230e      0x566 CMakeFiles/hello_usb.dir/opt/pico-sdk/src/rp2_common/pico_runtime/runtime.c.obj
 .debug_line    0x00002874      0x558 CMakeFiles/hello_usb.dir/opt/pico-sdk/src/rp2_common/hardware_clocks/clocks.c.obj
 .debug_line    0x00002dcc      0x5eb CMakeFiles/hello_usb.dir/opt/pico-sdk/src/rp2_common/hardware_irq/irq.c.obj
 .debug_line    0x000033b7       0x77 CMakeFiles/hello_usb.dir/opt/pico-sdk/src/rp2_common/hardware_irq/irq_handler_chain.S.obj
 .debug_line    0x0000342e      0x319 CMakeFiles/hello_usb.dir/opt/pico-sdk/src/rp2_common/hardware_pll/pll.c.obj
 .debug_line    0x00003747      0x26f CMakeFiles/hello_usb.dir/opt/pico-sdk/src/rp2_common/hardware_watchdog/watchdog.c.obj
 .debug_line    0x000039b6      0x193 CMakeFiles/hello_usb.dir/opt/pico-sdk/src/rp2_common/hardware_xosc/xosc.c.obj
 .debug_line    0x00003b49      0x606 CMakeFiles/hello_usb.dir/opt/pico-sdk/src/rp2_common/pico_printf/printf.c.obj
 .debug_line    0x0000414f      0x13a CMakeFiles/hello_usb.dir/opt/pico-sdk/src/rp2_common/pico_bit_ops/bit_ops_aeabi.S.obj
 .debug_line    0x00004289       0xf0 CMakeFiles/hello_usb.dir/opt/pico-sdk/src/rp2_common/pico_bootrom/bootrom.c.obj
 .debug_line    0x00004379      0x2c1 CMakeFiles/hello_usb.dir/opt/pico-sdk/src/rp2_common/pico_divider/divider.S.obj
 .debug_line    0x0000463a      0x418 CMakeFiles/hello_usb.dir/opt/pico-sdk/src/rp2_common/pico_double/double_aeabi.S.obj
 .debug_line    0x00004a52      0x24b CMakeFiles/hello_usb.dir/opt/pico-sdk/src/rp2_common/pico_double/double_init_rom.c.obj
 .debug_line    0x00004c9d      0x68e CMakeFiles/hello_usb.dir/opt/pico-sdk/src/rp2_common/pico_double/double_v1_rom_shim.S.obj
 .debug_line    0x0000532b       0x8a CMakeFiles/hello_usb.dir/opt/pico-sdk/src/rp2_common/pico_int64_ops/pico_int64_ops_aeabi.S.obj
 .debug_line    0x000053b5      0x3ce CMakeFiles/hello_usb.dir/opt/pico-sdk/src/rp2_common/pico_float/float_aeabi.S.obj
 .debug_line    0x00005783      0x251 CMakeFiles/hello_usb.dir/opt/pico-sdk/src/rp2_common/pico_float/float_init_rom.c.obj
 .debug_line    0x000059d4      0x1ba CMakeFiles/hello_usb.dir/opt/pico-sdk/src/rp2_common/pico_float/float_v1_rom_shim.S.obj
 .debug_line    0x00005b8e       0xb4 CMakeFiles/hello_usb.dir/opt/pico-sdk/src/rp2_common/pico_mem_ops/mem_ops_aeabi.S.obj
 .debug_line    0x00005c42       0xc5 CMakeFiles/hello_usb.dir/opt/pico-sdk/src/rp2_common/pico_standard_link/crt0.S.obj
 .debug_line    0x00005d07      0x140 CMakeFiles/hello_usb.dir/opt/pico-sdk/src/rp2_common/pico_standard_link/binary_info.c.obj
 .debug_line    0x00005e47      0x6f5 CMakeFiles/hello_usb.dir/opt/pico-sdk/src/rp2_common/pico_stdio/stdio.c.obj
 .debug_line    0x0000653c      0x403 CMakeFiles/hello_usb.dir/opt/pico-sdk/src/rp2_common/pico_stdio_usb/reset_interface.c.obj
 .debug_line    0x0000693f      0x5e7 CMakeFiles/hello_usb.dir/opt/pico-sdk/src/rp2_common/pico_stdio_usb/stdio_usb.c.obj
 .debug_line    0x00006f26      0x321 CMakeFiles/hello_usb.dir/opt/pico-sdk/src/rp2_common/pico_stdio_usb/stdio_usb_descriptors.c.obj
 .debug_line    0x00007247      0x76f CMakeFiles/hello_usb.dir/opt/pico-sdk/lib/tinyusb/src/portable/raspberrypi/rp2040/dcd_rp2040.c.obj
 .debug_line    0x000079b6      0x4d3 CMakeFiles/hello_usb.dir/opt/pico-sdk/lib/tinyusb/src/portable/raspberrypi/rp2040/rp2040_usb.c.obj
 .debug_line    0x00007e89      0xc63 CMakeFiles/hello_usb.dir/opt/pico-sdk/lib/tinyusb/src/device/usbd.c.obj
 .debug_line    0x00008aec      0x3cd CMakeFiles/hello_usb.dir/opt/pico-sdk/lib/tinyusb/src/device/usbd_control.c.obj
 .debug_line    0x00008eb9      0x7ab CMakeFiles/hello_usb.dir/opt/pico-sdk/lib/tinyusb/src/class/cdc/cdc_device.c.obj
 .debug_line    0x00009664      0x369 CMakeFiles/hello_usb.dir/opt/pico-sdk/lib/tinyusb/src/tusb.c.obj
 .debug_line    0x000099cd      0x8d1 CMakeFiles/hello_usb.dir/opt/pico-sdk/lib/tinyusb/src/common/tusb_fifo.c.obj
 .debug_line    0x0000a29e      0x247 CMakeFiles/hello_usb.dir/opt/pico-sdk/src/rp2_common/pico_unique_id/unique_id.c.obj
 .debug_line    0x0000a4e5      0x3de CMakeFiles/hello_usb.dir/opt/pico-sdk/src/rp2_common/hardware_flash/flash.c.obj
 .debug_line    0x0000a8c3       0x5d /usr/lib/gcc/arm-none-eabi/7.3.1/thumb/v6-m/libgcc.a(_dvmd_tls.o)
 .debug_line    0x0000a920      0x146 /usr/lib/gcc/arm-none-eabi/7.3.1/../../../arm-none-eabi/lib/thumb/v6-m/libg.a(lib_a-strlen-stub.o)

.debug_str      0x00000000     0x612a
 .debug_str     0x00000000      0x57a CMakeFiles/hello_usb.dir/hello_usb.c.obj
                                0x61b (size before relaxing)
 .debug_str     0x0000057a      0x1e0 CMakeFiles/hello_usb.dir/opt/pico-sdk/src/rp2_common/hardware_claim/claim.c.obj
                                0x36a (size before relaxing)
 .debug_str     0x0000075a       0x7d CMakeFiles/hello_usb.dir/opt/pico-sdk/src/rp2_common/pico_platform/platform.c.obj
                                0x226 (size before relaxing)
 .debug_str     0x000007d7       0xdf CMakeFiles/hello_usb.dir/opt/pico-sdk/src/rp2_common/hardware_sync/sync.c.obj
                                0x351 (size before relaxing)
 .debug_str     0x000008b6      0x748 CMakeFiles/hello_usb.dir/opt/pico-sdk/src/common/pico_time/time.c.obj
                                0xf78 (size before relaxing)
 .debug_str     0x00000ffe      0x1b7 CMakeFiles/hello_usb.dir/opt/pico-sdk/src/rp2_common/hardware_timer/timer.c.obj
                                0x692 (size before relaxing)
 .debug_str     0x000011b5       0x2f CMakeFiles/hello_usb.dir/opt/pico-sdk/src/common/pico_sync/lock_core.c.obj
                                0x25e (size before relaxing)
 .debug_str     0x000011e4      0x132 CMakeFiles/hello_usb.dir/opt/pico-sdk/src/common/pico_sync/mutex.c.obj
                                0x528 (size before relaxing)
 .debug_str     0x00001316       0xc7 CMakeFiles/hello_usb.dir/opt/pico-sdk/src/common/pico_sync/critical_section.c.obj
                                0x31e (size before relaxing)
 .debug_str     0x000013dd       0xdf CMakeFiles/hello_usb.dir/opt/pico-sdk/src/common/pico_util/pheap.c.obj
                                0x7d9 (size before relaxing)
 .debug_str     0x000014bc      0x2d5 CMakeFiles/hello_usb.dir/opt/pico-sdk/src/rp2_common/pico_runtime/runtime.c.obj
                                0xa28 (size before relaxing)
 .debug_str     0x00001791      0x32b CMakeFiles/hello_usb.dir/opt/pico-sdk/src/rp2_common/hardware_clocks/clocks.c.obj
                                0x64d (size before relaxing)
 .debug_str     0x00001abc      0x2cc CMakeFiles/hello_usb.dir/opt/pico-sdk/src/rp2_common/hardware_irq/irq.c.obj
                                0x715 (size before relaxing)
 .debug_str     0x00001d88       0x4c CMakeFiles/hello_usb.dir/opt/pico-sdk/src/rp2_common/hardware_irq/irq_handler_chain.S.obj
                                 0x75 (size before relaxing)
 .debug_str     0x00001dd4       0x82 CMakeFiles/hello_usb.dir/opt/pico-sdk/src/rp2_common/hardware_pll/pll.c.obj
                                0x2ca (size before relaxing)
 .debug_str     0x00001e56       0xfb CMakeFiles/hello_usb.dir/opt/pico-sdk/src/rp2_common/hardware_watchdog/watchdog.c.obj
                                0x6e9 (size before relaxing)
 .debug_str     0x00001f51       0x68 CMakeFiles/hello_usb.dir/opt/pico-sdk/src/rp2_common/hardware_xosc/xosc.c.obj
                                0x229 (size before relaxing)
 .debug_str     0x00001fb9      0x18a CMakeFiles/hello_usb.dir/opt/pico-sdk/src/rp2_common/pico_printf/printf.c.obj
                                0x765 (size before relaxing)
 .debug_str     0x00002143       0x3a CMakeFiles/hello_usb.dir/opt/pico-sdk/src/rp2_common/pico_bit_ops/bit_ops_aeabi.S.obj
                                 0x71 (size before relaxing)
 .debug_str     0x0000217d       0xa0 CMakeFiles/hello_usb.dir/opt/pico-sdk/src/rp2_common/pico_bootrom/bootrom.c.obj
                                0x249 (size before relaxing)
 .debug_str     0x0000221d       0x34 CMakeFiles/hello_usb.dir/opt/pico-sdk/src/rp2_common/pico_divider/divider.S.obj
                                 0x6b (size before relaxing)
 .debug_str     0x00002251       0x38 CMakeFiles/hello_usb.dir/opt/pico-sdk/src/rp2_common/pico_double/double_aeabi.S.obj
                                 0x6f (size before relaxing)
 .debug_str     0x00002289       0x84 CMakeFiles/hello_usb.dir/opt/pico-sdk/src/rp2_common/pico_double/double_init_rom.c.obj
                                0x662 (size before relaxing)
 .debug_str     0x0000230d       0x3e CMakeFiles/hello_usb.dir/opt/pico-sdk/src/rp2_common/pico_double/double_v1_rom_shim.S.obj
                                 0x75 (size before relaxing)
 .debug_str     0x0000234b       0x43 CMakeFiles/hello_usb.dir/opt/pico-sdk/src/rp2_common/pico_int64_ops/pico_int64_ops_aeabi.S.obj
                                 0x7a (size before relaxing)
 .debug_str     0x0000238e       0x36 CMakeFiles/hello_usb.dir/opt/pico-sdk/src/rp2_common/pico_float/float_aeabi.S.obj
                                 0x6d (size before relaxing)
 .debug_str     0x000023c4       0x80 CMakeFiles/hello_usb.dir/opt/pico-sdk/src/rp2_common/pico_float/float_init_rom.c.obj
                                0x69a (size before relaxing)
 .debug_str     0x00002444       0x3c CMakeFiles/hello_usb.dir/opt/pico-sdk/src/rp2_common/pico_float/float_v1_rom_shim.S.obj
                                 0x73 (size before relaxing)
 .debug_str     0x00002480       0x3a CMakeFiles/hello_usb.dir/opt/pico-sdk/src/rp2_common/pico_mem_ops/mem_ops_aeabi.S.obj
                                 0x71 (size before relaxing)
 .debug_str     0x000024ba       0x37 CMakeFiles/hello_usb.dir/opt/pico-sdk/src/rp2_common/pico_standard_link/crt0.S.obj
                                 0x6e (size before relaxing)
 .debug_str     0x000024f1      0x271 CMakeFiles/hello_usb.dir/opt/pico-sdk/src/rp2_common/pico_standard_link/binary_info.c.obj
                                0x422 (size before relaxing)
 .debug_str     0x00002762      0x2a5 CMakeFiles/hello_usb.dir/opt/pico-sdk/src/rp2_common/pico_stdio/stdio.c.obj
                                0xb27 (size before relaxing)
 .debug_str     0x00002a07      0x665 CMakeFiles/hello_usb.dir/opt/pico-sdk/src/rp2_common/pico_stdio_usb/reset_interface.c.obj
                                0xcdc (size before relaxing)
 .debug_str     0x0000306c      0x1fa CMakeFiles/hello_usb.dir/opt/pico-sdk/src/rp2_common/pico_stdio_usb/stdio_usb.c.obj
                                0xc65 (size before relaxing)
 .debug_str     0x00003266      0xa9b CMakeFiles/hello_usb.dir/opt/pico-sdk/src/rp2_common/pico_stdio_usb/stdio_usb_descriptors.c.obj
                               0x13bd (size before relaxing)
 .debug_str     0x00003d01      0x924 CMakeFiles/hello_usb.dir/opt/pico-sdk/lib/tinyusb/src/portable/raspberrypi/rp2040/dcd_rp2040.c.obj
                               0x12c5 (size before relaxing)
 .debug_str     0x00004625      0x13a CMakeFiles/hello_usb.dir/opt/pico-sdk/lib/tinyusb/src/portable/raspberrypi/rp2040/rp2040_usb.c.obj
                                0xc58 (size before relaxing)
 .debug_str     0x0000475f      0x953 CMakeFiles/hello_usb.dir/opt/pico-sdk/lib/tinyusb/src/device/usbd.c.obj
                               0x1c8e (size before relaxing)
 .debug_str     0x000050b2       0xde CMakeFiles/hello_usb.dir/opt/pico-sdk/lib/tinyusb/src/device/usbd_control.c.obj
                                0xa96 (size before relaxing)
 .debug_str     0x00005190      0x720 CMakeFiles/hello_usb.dir/opt/pico-sdk/lib/tinyusb/src/class/cdc/cdc_device.c.obj
                               0x1be8 (size before relaxing)
 .debug_str     0x000058b0       0x68 CMakeFiles/hello_usb.dir/opt/pico-sdk/lib/tinyusb/src/tusb.c.obj
                                0x828 (size before relaxing)
 .debug_str     0x00005918      0x387 CMakeFiles/hello_usb.dir/opt/pico-sdk/lib/tinyusb/src/common/tusb_fifo.c.obj
                                0xc03 (size before relaxing)
 .debug_str     0x00005c9f       0xb3 CMakeFiles/hello_usb.dir/opt/pico-sdk/src/rp2_common/pico_unique_id/unique_id.c.obj
                                0x279 (size before relaxing)
 .debug_str     0x00005d52      0x224 CMakeFiles/hello_usb.dir/opt/pico-sdk/src/rp2_common/hardware_flash/flash.c.obj
                                0x4ac (size before relaxing)
 .debug_str     0x00005f76       0x8f /usr/lib/gcc/arm-none-eabi/7.3.1/thumb/v6-m/libgcc.a(_dvmd_tls.o)
                                 0x9d (size before relaxing)
 .debug_str     0x00006005      0x125 /usr/lib/gcc/arm-none-eabi/7.3.1/../../../arm-none-eabi/lib/thumb/v6-m/libg.a(lib_a-strlen-stub.o)
                                0x5ad (size before relaxing)

.debug_frame    0x00000000     0x2248
 .debug_frame   0x00000000       0x28 CMakeFiles/hello_usb.dir/hello_usb.c.obj
 .debug_frame   0x00000028       0x98 CMakeFiles/hello_usb.dir/opt/pico-sdk/src/rp2_common/hardware_claim/claim.c.obj
 .debug_frame   0x000000c0       0x38 CMakeFiles/hello_usb.dir/opt/pico-sdk/src/rp2_common/pico_platform/platform.c.obj
 .debug_frame   0x000000f8       0xc4 CMakeFiles/hello_usb.dir/opt/pico-sdk/src/rp2_common/hardware_sync/sync.c.obj
 .debug_frame   0x000001bc      0x290 CMakeFiles/hello_usb.dir/opt/pico-sdk/src/common/pico_time/time.c.obj
 .debug_frame   0x0000044c      0x13c CMakeFiles/hello_usb.dir/opt/pico-sdk/src/rp2_common/hardware_timer/timer.c.obj
 .debug_frame   0x00000588       0x20 CMakeFiles/hello_usb.dir/opt/pico-sdk/src/common/pico_sync/lock_core.c.obj
 .debug_frame   0x000005a8      0x104 CMakeFiles/hello_usb.dir/opt/pico-sdk/src/common/pico_sync/mutex.c.obj
 .debug_frame   0x000006ac       0x50 CMakeFiles/hello_usb.dir/opt/pico-sdk/src/common/pico_sync/critical_section.c.obj
 .debug_frame   0x000006fc      0x154 CMakeFiles/hello_usb.dir/opt/pico-sdk/src/common/pico_util/pheap.c.obj
 .debug_frame   0x00000850       0xdc CMakeFiles/hello_usb.dir/opt/pico-sdk/src/rp2_common/pico_runtime/runtime.c.obj
 .debug_frame   0x0000092c      0x120 CMakeFiles/hello_usb.dir/opt/pico-sdk/src/rp2_common/hardware_clocks/clocks.c.obj
 .debug_frame   0x00000a4c      0x180 CMakeFiles/hello_usb.dir/opt/pico-sdk/src/rp2_common/hardware_irq/irq.c.obj
 .debug_frame   0x00000bcc       0x40 CMakeFiles/hello_usb.dir/opt/pico-sdk/src/rp2_common/hardware_pll/pll.c.obj
 .debug_frame   0x00000c0c       0x98 CMakeFiles/hello_usb.dir/opt/pico-sdk/src/rp2_common/hardware_watchdog/watchdog.c.obj
 .debug_frame   0x00000ca4       0x40 CMakeFiles/hello_usb.dir/opt/pico-sdk/src/rp2_common/hardware_xosc/xosc.c.obj
 .debug_frame   0x00000ce4      0x1ec CMakeFiles/hello_usb.dir/opt/pico-sdk/src/rp2_common/pico_printf/printf.c.obj
 .debug_frame   0x00000ed0       0x64 CMakeFiles/hello_usb.dir/opt/pico-sdk/src/rp2_common/pico_bootrom/bootrom.c.obj
 .debug_frame   0x00000f34       0x2c CMakeFiles/hello_usb.dir/opt/pico-sdk/src/rp2_common/pico_double/double_init_rom.c.obj
 .debug_frame   0x00000f60       0x2c CMakeFiles/hello_usb.dir/opt/pico-sdk/src/rp2_common/pico_float/float_init_rom.c.obj
 .debug_frame   0x00000f8c      0x218 CMakeFiles/hello_usb.dir/opt/pico-sdk/src/rp2_common/pico_stdio/stdio.c.obj
 .debug_frame   0x000011a4       0x94 CMakeFiles/hello_usb.dir/opt/pico-sdk/src/rp2_common/pico_stdio_usb/reset_interface.c.obj
 .debug_frame   0x00001238       0xa4 CMakeFiles/hello_usb.dir/opt/pico-sdk/src/rp2_common/pico_stdio_usb/stdio_usb.c.obj
 .debug_frame   0x000012dc       0x48 CMakeFiles/hello_usb.dir/opt/pico-sdk/src/rp2_common/pico_stdio_usb/stdio_usb_descriptors.c.obj
 .debug_frame   0x00001324      0x2ac CMakeFiles/hello_usb.dir/opt/pico-sdk/lib/tinyusb/src/portable/raspberrypi/rp2040/dcd_rp2040.c.obj
 .debug_frame   0x000015d0       0xdc CMakeFiles/hello_usb.dir/opt/pico-sdk/lib/tinyusb/src/portable/raspberrypi/rp2040/rp2040_usb.c.obj
 .debug_frame   0x000016ac      0x3ac CMakeFiles/hello_usb.dir/opt/pico-sdk/lib/tinyusb/src/device/usbd.c.obj
 .debug_frame   0x00001a58       0xc8 CMakeFiles/hello_usb.dir/opt/pico-sdk/lib/tinyusb/src/device/usbd_control.c.obj
 .debug_frame   0x00001b20      0x1ec CMakeFiles/hello_usb.dir/opt/pico-sdk/lib/tinyusb/src/class/cdc/cdc_device.c.obj
 .debug_frame   0x00001d0c       0x84 CMakeFiles/hello_usb.dir/opt/pico-sdk/lib/tinyusb/src/tusb.c.obj
 .debug_frame   0x00001d90      0x36c CMakeFiles/hello_usb.dir/opt/pico-sdk/lib/tinyusb/src/common/tusb_fifo.c.obj
 .debug_frame   0x000020fc       0x58 CMakeFiles/hello_usb.dir/opt/pico-sdk/src/rp2_common/pico_unique_id/unique_id.c.obj
 .debug_frame   0x00002154       0xcc CMakeFiles/hello_usb.dir/opt/pico-sdk/src/rp2_common/hardware_flash/flash.c.obj
 .debug_frame   0x00002220       0x28 /usr/lib/gcc/arm-none-eabi/7.3.1/../../../arm-none-eabi/lib/thumb/v6-m/libg.a(lib_a-strlen-stub.o)

.debug_loc      0x00000000     0xfeff
 .debug_loc     0x00000000      0x371 CMakeFiles/hello_usb.dir/opt/pico-sdk/src/rp2_common/hardware_claim/claim.c.obj
 .debug_loc     0x00000371       0xcf CMakeFiles/hello_usb.dir/opt/pico-sdk/src/rp2_common/pico_platform/platform.c.obj
 .debug_loc     0x00000440      0x196 CMakeFiles/hello_usb.dir/opt/pico-sdk/src/rp2_common/hardware_sync/sync.c.obj
 .debug_loc     0x000005d6     0x2365 CMakeFiles/hello_usb.dir/opt/pico-sdk/src/common/pico_time/time.c.obj
 .debug_loc     0x0000293b      0x59d CMakeFiles/hello_usb.dir/opt/pico-sdk/src/rp2_common/hardware_timer/timer.c.obj
 .debug_loc     0x00002ed8       0x56 CMakeFiles/hello_usb.dir/opt/pico-sdk/src/common/pico_sync/lock_core.c.obj
 .debug_loc     0x00002f2e      0x966 CMakeFiles/hello_usb.dir/opt/pico-sdk/src/common/pico_sync/mutex.c.obj
 .debug_loc     0x00003894       0xc2 CMakeFiles/hello_usb.dir/opt/pico-sdk/src/common/pico_sync/critical_section.c.obj
 .debug_loc     0x00003956      0xfd7 CMakeFiles/hello_usb.dir/opt/pico-sdk/src/common/pico_util/pheap.c.obj
 .debug_loc     0x0000492d      0x2bd CMakeFiles/hello_usb.dir/opt/pico-sdk/src/rp2_common/pico_runtime/runtime.c.obj
 .debug_loc     0x00004bea      0x66e CMakeFiles/hello_usb.dir/opt/pico-sdk/src/rp2_common/hardware_clocks/clocks.c.obj
 .debug_loc     0x00005258      0xba7 CMakeFiles/hello_usb.dir/opt/pico-sdk/src/rp2_common/hardware_irq/irq.c.obj
 .debug_loc     0x00005dff      0x28f CMakeFiles/hello_usb.dir/opt/pico-sdk/src/rp2_common/hardware_pll/pll.c.obj
 .debug_loc     0x0000608e      0x221 CMakeFiles/hello_usb.dir/opt/pico-sdk/src/rp2_common/hardware_watchdog/watchdog.c.obj
 .debug_loc     0x000062af       0x35 CMakeFiles/hello_usb.dir/opt/pico-sdk/src/rp2_common/hardware_xosc/xosc.c.obj
 .debug_loc     0x000062e4     0x1b4a CMakeFiles/hello_usb.dir/opt/pico-sdk/src/rp2_common/pico_printf/printf.c.obj
 .debug_loc     0x00007e2e      0x145 CMakeFiles/hello_usb.dir/opt/pico-sdk/src/rp2_common/pico_bootrom/bootrom.c.obj
 .debug_loc     0x00007f73       0x4f CMakeFiles/hello_usb.dir/opt/pico-sdk/src/rp2_common/pico_double/double_init_rom.c.obj
 .debug_loc     0x00007fc2       0x65 CMakeFiles/hello_usb.dir/opt/pico-sdk/src/rp2_common/pico_float/float_init_rom.c.obj
 .debug_loc     0x00008027      0x8e0 CMakeFiles/hello_usb.dir/opt/pico-sdk/src/rp2_common/pico_stdio/stdio.c.obj
 .debug_loc     0x00008907      0x30c CMakeFiles/hello_usb.dir/opt/pico-sdk/src/rp2_common/pico_stdio_usb/reset_interface.c.obj
 .debug_loc     0x00008c13      0x4f7 CMakeFiles/hello_usb.dir/opt/pico-sdk/src/rp2_common/pico_stdio_usb/stdio_usb.c.obj
 .debug_loc     0x0000910a       0xe9 CMakeFiles/hello_usb.dir/opt/pico-sdk/src/rp2_common/pico_stdio_usb/stdio_usb_descriptors.c.obj
 .debug_loc     0x000091f3      0xb6c CMakeFiles/hello_usb.dir/opt/pico-sdk/lib/tinyusb/src/portable/raspberrypi/rp2040/dcd_rp2040.c.obj
 .debug_loc     0x00009d5f      0x54c CMakeFiles/hello_usb.dir/opt/pico-sdk/lib/tinyusb/src/portable/raspberrypi/rp2040/rp2040_usb.c.obj
 .debug_loc     0x0000a2ab     0x1b50 CMakeFiles/hello_usb.dir/opt/pico-sdk/lib/tinyusb/src/device/usbd.c.obj
 .debug_loc     0x0000bdfb      0x432 CMakeFiles/hello_usb.dir/opt/pico-sdk/lib/tinyusb/src/device/usbd_control.c.obj
 .debug_loc     0x0000c22d      0xee7 CMakeFiles/hello_usb.dir/opt/pico-sdk/lib/tinyusb/src/class/cdc/cdc_device.c.obj
 .debug_loc     0x0000d114      0x27a CMakeFiles/hello_usb.dir/opt/pico-sdk/lib/tinyusb/src/tusb.c.obj
 .debug_loc     0x0000d38e     0x24dc CMakeFiles/hello_usb.dir/opt/pico-sdk/lib/tinyusb/src/common/tusb_fifo.c.obj
 .debug_loc     0x0000f86a       0xe1 CMakeFiles/hello_usb.dir/opt/pico-sdk/src/rp2_common/pico_unique_id/unique_id.c.obj
 .debug_loc     0x0000f94b      0x520 CMakeFiles/hello_usb.dir/opt/pico-sdk/src/rp2_common/hardware_flash/flash.c.obj
 .debug_loc     0x0000fe6b       0x94 /usr/lib/gcc/arm-none-eabi/7.3.1/../../../arm-none-eabi/lib/thumb/v6-m/libg.a(lib_a-strlen-stub.o)
